(lp0
Va-level
p1
aVacadem
p2
aVacademi
p3
aVaccess
p4
aVaccount
p5
aVactor
p6
aVadrian
p7
aVae
p8
aVage
p9
aValbum
p10
aVamoruso
p11
aVanim
p12
aVarsenal
p13
aVart
p14
aVassist
p15
aVaston
p16
aVathlet
p17
aVatletico
p18
aVatmospher
p19
aVattack
p20
aVattempt
p21
aVaugusta
p22
aVaward
p23
aVbabi
p24
aVbafta
p25
aVball
p26
aVbamboo
p27
aVbank
p28
aVbbc
p29
aVbecc
p30
aVbird
p31
aVblair
p32
aVblock
p33
aVbn
p34
aVbook
p35
aVborrow
p36
aVbox
p37
aVbrain
p38
aVbrand
p39
aVbrown
p40
aVbug
p41
aVbuild
p42
aVburnley
p43
aVbusi
p44
aVbuyer
p45
aVby-elect
p46
aVcabinet
p47
aVcameron
p48
aVcampaign
p49
aVcancer
p50
aVcann
p51
aVcarbon
p52
aVcare
p53
aVcase
p54
aVcaus
p55
aVccs
p56
aVcell
p57
aVcentr
p58
aVchampion
p59
aVchampionship
p60
aVchancellor
p61
aVchang
p62
aVchemic
p63
aVchief
p64
aVchild
p65
aVchildren
p66
aVchronic
p67
aVchronotherapi
p68
aVciti
p69
aVclass
p70
aVclassroom
p71
aVclimat
p72
aVclinic
p73
aVclub
p74
aVcoal
p75
aVcoalit
p76
aVcode
p77
aVcoderdojo
p78
aVcoin
p79
aVcolleg
p80
aVcomedi
p81
aVcommon
p82
aVcommonwealth
p83
aVcompani
p84
aVcomput
p85
aVcomr
p86
aVconced
p87
aVconfer
p88
aVconserv
p89
aVconstitu
p90
aVconsum
p91
aVcontain
p92
aVcontest
p93
aVcorner
p94
aVcould
p95
aVcouncil
p96
aVcouncillor
p97
aVcountri
p98
aVcours
p99
aVcourt
p100
aVcps
p101
aVcross
p102
aVcrystal
p103
aVcull
p104
aVcup
p105
aVcurrenc
p106
aVcurriculum
p107
aVcustom
p108
aVcyber-secur
p109
aVd-wave
p110
aVdark
p111
aVdata
p112
aVdavid
p113
aVdeath
p114
aVdebt
p115
aVdefens
p116
aVdegre
p117
aVdeliveri
p118
aVdemel
p119
aVdemocrat
p120
aVdenham
p121
aVdeputi
p122
aVdevelop
p123
aVdevi
p124
aVdiagnos
p125
aVdigit
p126
aVdisadvantag
p127
aVdiseas
p128
aVdisk
p129
aVdisord
p130
aVdmi
p131
aVdoctor
p132
aVdog
p133
aVdr
p134
aVdropbox
p135
aVdrug
p136
aVduopoli
p137
aVeat
p138
aVebay
p139
aVeconom
p140
aVeconomi
p141
aVed
p142
aVeduc
p143
aVeffect
p144
aVelect
p145
aVemiss
p146
aVenergi
p147
aVengin
p148
aVengland
p149
aVenglish
p150
aVepstein
p151
aVeu
p152
aVeuropean
p153
aVevan
p154
aVevelyn
p155
aVevi
p156
aVexam
p157
aVexplain
p158
aVexport
p159
aVfacebook
p160
aVfamili
p161
aVfan
p162
aVfarm
p163
aVfeather
p164
aVfeder
p165
aVfgm
p166
aVfilm
p167
aVfinal
p168
aVfind
p169
aVfinish
p170
aVfirm
p171
aVfitch
p172
aVfli
p173
aVfood
p174
aVfoot
p175
aVfootbal
p176
aVforest
p177
aVformer
p178
aVfoul
p179
aVfrack
p180
aVfree
p181
aVfuel
p182
aVfulham
p183
aVgame
p184
aVgas
p185
aVgazprom
p186
aVgcse
p187
aVgene
p188
aVgeneral
p189
aVgenet
p190
aVgirl
p191
aVglacier
p192
aVglass
p193
aVgoal
p194
aVgoat
p195
aVgoogl
p196
aVgordon
p197
aVgovern
p198
aVgrade
p199
aVgrowth
p200
aVhalf
p201
aVhalfpenni
p202
aVharass
p203
aVheader
p204
aVhealth
p205
aVheartble
p206
aVheat
p207
aVheld
p208
aVhepat
p209
aVhiggin
p210
aVhiv
p211
aVhong
p212
aVhospit
p213
aVhous
p214
aVhuman
p215
aVicann
p216
aVice
p217
aVicm
p218
aVimf
p219
aVimplant
p220
aVincreas
p221
aVindepend
p222
aVindustri
p223
aVinfect
p224
aVinform
p225
aVinstant
p226
aVinternet
p227
aVinvest
p228
aVinvestor
p229
aVipcc
p230
aVipso
p231
aVipsos-mori
p232
aVjason
p233
aVk
p234
aVkick
p235
aVkicksat
p236
aVkong
p237
aVlabour
p238
aVlambeth
p239
aVlanguag
p240
aVleader
p241
aVleadership
p242
aVleagu
p243
aVlearn
p244
aVlectur
p245
aVleft
p246
aVlend
p247
aVlender
p248
aVlenovo
p249
aVliao
p250
aVliber
p251
aVlibrari
p252
aVliverpool
p253
aVloan
p254
aVlocal
p255
aVlord
p256
aVm
p257
aVmachin
p258
aVmagnet
p259
aVmaguir
p260
aVmail
p261
aVmainfram
p262
aVmalaria
p263
aVmali
p264
aVmap
p265
aVmarathon
p266
aVmarket
p267
aVmaster
p268
aVmatch
p269
aVmateri
p270
aVmath
p271
aVmatter
p272
aVmeasur
p273
aVmedal
p274
aVmedia
p275
aVmedic
p276
aVmen
p277
aVmicrosoft
p278
aVmiddlesbrough
p279
aVmiliband
p280
aVminist
p281
aVministeri
p282
aVmiss
p283
aVmodel
p284
aVmole
p285
aVmonaco
p286
aVmooc
p287
aVmori
p288
aVmortgag
p289
aVmosquito
p290
aVmp
p291
aVmps
p292
aVmr
p293
aVmrs
p294
aVmrsa
p295
aVmusic
p296
aVneedl
p297
aVnetwork
p298
aVnhs
p299
aVnorwich
p300
aVnottingham
p301
aVnurseri
p302
aVobserv
p303
aVocean
p304
aVoctob
p305
aVoffic
p306
aVoffsid
p307
aVofst
p308
aVolymp
p309
aVonlin
p310
aVopenreach
p311
aVopenssl
p312
aVoper
p313
aVopposit
p314
aVoutsid
p315
aVoverdraft
p316
aVp
p317
aVpain
p318
aVpalac
p319
aVpar
p320
aVparent
p321
aVpark
p322
aVparliament
p323
aVparliamentari
p324
aVparti
p325
aVpassword
p326
aVpatient
p327
aVpay
p328
aVpc
p329
aVpenalti
p330
aVpeopl
p331
aVplace
p332
aVplant
p333
aVplastic
p334
aVplay
p335
aVplayer
p336
aVpolic
p337
aVpolio
p338
aVpolit
p339
aVpoll
p340
aVpopulus
p341
aVpower
p342
aVpre-school
p343
aVpremier
p344
aVprice
p345
aVprimari
p346
aVprime
p347
aVproduc
p348
aVprof
p349
aVprofit
p350
aVproject
p351
aVproperti
p352
aVprosecut
p353
aVprostat
p354
aVprovid
p355
aVpublic
p356
aVpump
p357
aVpupil
p358
aVqualifi
p359
aVquantum
p360
aVquarter
p361
aVqueen
p362
aVrace
p363
aVranger
p364
aVrate
p365
aVreferendum
p366
aVreform
p367
aVregiment
p368
aVreleas
p369
aVreport
p370
aVresearch
p371
aVreshuffl
p372
aVresign
p373
aVretail
p374
aVright
p375
aVrise
p376
aVroyal
p377
aVrussia
p378
aVsacher
p379
aVsachertort
p380
aVsaid
p381
aVsale
p382
aVsalmond
p383
aVsamsung
p384
aVsanogo
p385
aVsatellit
p386
aVsave
p387
aVsay
p388
aVschool
p389
aVscienc
p390
aVscientif
p391
aVscientist
p392
aVscore
p393
aVscotch
p394
aVscotland
p395
aVscott
p396
aVscottish
p397
aVsea
p398
aVseason
p399
aVseat
p400
aVsecond
p401
aVsecretari
p402
aVsecur
p403
aVservic
p404
aVshadow
p405
aVshark
p406
aVship
p407
aVshot
p408
aVshow
p409
aVside
p410
aVsinger
p411
aVsissako
p412
aVskill
p413
aVskin
p414
aVsmartphon
p415
aVsnp
p416
aVsolicitor
p417
aVsong
p418
aVspace
p419
aVspeaker
p420
aVspeci
p421
aVspeech
p422
aVspeed
p423
aVsport
p424
aVsprite
p425
aVstaff
p426
aVstar
p427
aVsteroid
p428
aVstudent
p429
aVstudi
p430
aVsubject
p431
aVsuhair
p432
aVsunb
p433
aVsuppli
p434
aVsupplier
p435
aVsupport
p436
aVsurf
p437
aVsurfac
p438
aVsymptom
p439
aVsystem
p440
aVtax
p441
aVteach
p442
aVteacher
p443
aVteam
p444
aVtechnolog
p445
aVtemperatur
p446
aVth
p447
aVtheatr
p448
aVtherapi
p449
aVtimbuktu
p450
aVtitl
p451
aVtns-bmrb
p452
aVtoni
p453
aVtonn
p454
aVtori
p455
aVtournament
p456
aVtove
p457
aVtownsend
p458
aVtrade
p459
aVtreasuri
p460
aVtreat
p461
aVtreatment
p462
aVtree
p463
aVtumour
p464
aVtutor
p465
aVtwitter
p466
aVuganda
p467
aVuk
p468
aVukip
p469
aVukrain
p470
aVunion
p471
aVunivers
p472
aVunpaid
p473
aVuse
p474
aVuser
p475
aVv
p476
aVvictori
p477
aVvideo
p478
aVvilla
p479
aVvillag
p480
aVvirus
p481
aVvote
p482
aVvoter
p483
aVwant
p484
aVwater
p485
aVwave
p486
aVwelsh
p487
aVwestminst
p488
aVwhip
p489
aVwhiski
p490
aVwigan
p491
aVwin
p492
aVwinner
p493
aVwon
p494
aVwould
p495
aVws
p496
aVyear
p497
aVyougov
p498
aVyoung
p499
aVyoungster
p500
a.