(lp0
Va-level
p1
aVabus
p2
aVacadem
p3
aVaccess
p4
aVachiev
p5
aVactor
p6
aVactress
p7
aVadrian
p8
aVaffect
p9
aVafrica
p10
aVage
p11
aVaircraft
p12
aValbum
p13
aValleg
p14
aValmost
p15
aValso
p16
aVanchor
p17
aVandrea
p18
aVanim
p19
aVannex
p20
aVapp
p21
aVarea
p22
aVarmi
p23
aVaround
p24
aVart
p25
aVartist
p26
aVashley
p27
aVasia
p28
aVassess
p29
aVasset
p30
aVassist
p31
aVassoci
p32
aVatmospher
p33
aVattack
p34
aVattempt
p35
aVaugusta
p36
aVaustralia
p37
aVauthor
p38
aVavail
p39
aVback
p40
aVball
p41
aVbank
p42
aVbarcelona
p43
aVbarr
p44
aVbatteri
p45
aVbattl
p46
aVbbc
p47
aVbeat
p48
aVbecam
p49
aVbehaviour
p50
aVbehind
p51
aVben
p52
aVbest
p53
aVbiggest
p54
aVbillion
p55
aVbird
p56
aVbirdi
p57
aVblair
p58
aVblock
p59
aVbn
p60
aVbodi
p61
aVbogey
p62
aVbond
p63
aVbook
p64
aVbottom
p65
aVbox
p66
aVbradley
p67
aVbreak
p68
aVbrief
p69
aVbring
p70
aVbritain
p71
aVbst
p72
aVbubba
p73
aVbug
p74
aVbulli
p75
aVbunker
p76
aVburkitt
p77
aVbusi
p78
aVbutton
p79
aVbuyer
p80
aVcabinet
p81
aVcall
p82
aVcame
p83
aVcameron
p84
aVcampaign
p85
aVcampbel
p86
aVcancer
p87
aVcannot
p88
aVcapit
p89
aVcar
p90
aVcarbon
p91
aVcard
p92
aVcare
p93
aVcarl
p94
aVcase
p95
aVcaus
p96
aVcautious
p97
aVcell
p98
aVcentr
p99
aVcenturi
p100
aVchampion
p101
aVchampionship
p102
aVchanc
p103
aVchancellor
p104
aVchang
p105
aVchelsea
p106
aVchild
p107
aVchildren
p108
aVchina
p109
aVchristian
p110
aVchurch
p111
aVclaim
p112
aVclam
p113
aVclass
p114
aVclassroom
p115
aVclear
p116
aVclegg
p117
aVclimat
p118
aVclinic
p119
aVclose
p120
aVclub
p121
aVcoach
p122
aVcoalit
p123
aVcoast
p124
aVcochlear
p125
aVcolleg
p126
aVcome
p127
aVcomedi
p128
aVcommando
p129
aVcommentari
p130
aVcommon
p131
aVcompani
p132
aVcomput
p133
aVcomr
p134
aVconced
p135
aVcondit
p136
aVconduct
p137
aVconfer
p138
aVconsecut
p139
aVconserv
p140
aVconsum
p141
aVconvict
p142
aVcorner
p143
aVcould
p144
aVcountri
p145
aVcours
p146
aVcourt
p147
aVcps
p148
aVcreativ
p149
aVcrisi
p150
aVcriticis
p151
aVcross
p152
aVcrown
p153
aVcull
p154
aVcultur
p155
aVcup
p156
aVcurrenc
p157
aVcurriculum
p158
aVcustom
p159
aVdark
p160
aVdata
p161
aVdave
p162
aVdavid
p163
aVday
p164
aVdean
p165
aVdebt
p166
aVdebut
p167
aVdefeat
p168
aVdefend
p169
aVdefens
p170
aVdeficit
p171
aVdegre
p172
aVdem
p173
aVdeputi
p174
aVdesign
p175
aVdestruct
p176
aVdetail
p177
aVdetect
p178
aVdevelop
p179
aVdevic
p180
aVdiagnos
p181
aVdig
p182
aVdigit
p183
aVdisadvantag
p184
aVdiseas
p185
aVdisord
p186
aVdisput
p187
aVdistanc
p188
aVdive
p189
aVdoctor
p190
aVdog
p191
aVdonat
p192
aVdoubl
p193
aVdownload
p194
aVdr
p195
aVdrug
p196
aVduncan
p197
aVearlier
p198
aVearth
p199
aVeaster
p200
aVeat
p201
aVeconom
p202
aVeconomi
p203
aVeduc
p204
aVeffect
p205
aVeffici
p206
aVel
p207
aVelect
p208
aVelectr
p209
aVelit
p210
aVemiss
p211
aVemmanuel
p212
aVemploy
p213
aVemploye
p214
aVencrypt
p215
aVenergi
p216
aVengland
p217
aVenglish
p218
aVentertain
p219
aVenviron
p220
aVepstein
p221
aVesa
p222
aVeu
p223
aVeuro
p224
aVeuropean
p225
aVeuroscept
p226
aVevan
p227
aVeven
p228
aVevi
p229
aVexam
p230
aVexplain
p231
aVexploit
p232
aVexport
p233
aVextra
p234
aVfa
p235
aVfacebook
p236
aVfake
p237
aVfall
p238
aVfamili
p239
aVfan
p240
aVfar
p241
aVfarah
p242
aVfarmer
p243
aVfebruari
p244
aVfeel
p245
aVfestiv
p246
aVfever
p247
aVfibr
p248
aVfield
p249
aVfight
p250
aVfilm
p251
aVfinal
p252
aVfinanc
p253
aVfinanci
p254
aVfind
p255
aVfinish
p256
aVfirm
p257
aVfirst
p258
aVfive
p259
aVfix
p260
aVflaw
p261
aVfli
p262
aVfloor
p263
aVfood
p264
aVfoot
p265
aVfootbal
p266
aVforeign
p267
aVformal
p268
aVformer
p269
aVfoul
p270
aVfoundat
p271
aVfour
p272
aVfree
p273
aVfront
p274
aVft
p275
aVfuel
p276
aVfutur
p277
aVgallach
p278
aVgame
p279
aVgari
p280
aVgas
p281
aVgazprom
p282
aVgcse
p283
aVgcses
p284
aVgene
p285
aVgeneral
p286
aVgenerat
p287
aVgenet
p288
aVgeographi
p289
aVgermani
p290
aVget
p291
aVgive
p292
aVgo
p293
aVgoal
p294
aVgold
p295
aVgolf
p296
aVgoogl
p297
aVgot
p298
aVgove
p299
aVgovern
p300
aVgps
p301
aVgrade
p302
aVgraduat
p303
aVgrant
p304
aVgreat
p305
aVgreen
p306
aVgrow
p307
aVgrowth
p308
aVhacker
p309
aVhagu
p310
aVhalf
p311
aVhamilton
p312
aVharass
p313
aVharman
p314
aVheader
p315
aVhealth
p316
aVhealthi
p317
aVheartble
p318
aVhelp
p319
aVhiggin
p320
aVhigh
p321
aVhigher
p322
aVhistori
p323
aVhit
p324
aVhiv
p325
aVholder
p326
aVhole
p327
aVhong
p328
aVhospit
p329
aVhous
p330
aVhull
p331
aVhuman
p332
aVian
p333
aVicm
p334
aVideal
p335
aVidentifi
p336
aVim
p337
aVimag
p338
aVimf
p339
aVimmigr
p340
aVimplant
p341
aVimprov
p342
aVinclud
p343
aVincreas
p344
aVindepend
p345
aVindic
p346
aVindividu
p347
aVindustri
p348
aVinform
p349
aVinjuri
p350
aVinsist
p351
aVinstant
p352
aVinstitut
p353
aVinstrument
p354
aVintern
p355
aVinternet
p356
aVintroduc
p357
aVinvest
p358
aVinvestor
p359
aVipcc
p360
aVipso
p361
aVipsos-mori
p362
aVisland
p363
aVisrael
p364
aVissu
p365
aVive
p366
aVjack
p367
aVjami
p368
aVjason
p369
aVjob
p370
aVjone
p371
aVjournal
p372
aVjunior
p373
aVjuri
p374
aVjustic
p375
aVkick
p376
aVkill
p377
aVkinnock
p378
aVkm
p379
aVknown
p380
aVkong
p381
aVlabel
p382
aVlabour
p383
aVlanguag
p384
aVlarg
p385
aVlarger
p386
aVlargest
p387
aVlast
p388
aVleader
p389
aVleadership
p390
aVleagu
p391
aVlearn
p392
aVlectur
p393
aVlee
p394
aVleft
p395
aVlend
p396
aVlender
p397
aVlesson
p398
aVlevel
p399
aVlib
p400
aVliber
p401
aVlibrari
p402
aVlife
p403
aVlindblad-toh
p404
aVlink
p405
aVliteratur
p406
aVlive
p407
aVliverpool
p408
aVloan
p409
aVlocal
p410
aVlocat
p411
aVlondon
p412
aVlord
p413
aVlove
p414
aVlow
p415
aVluke
p416
aVm
p417
aVmake
p418
aVman
p419
aVmanag
p420
aVmani
p421
aVmap
p422
aVmarathon
p423
aVmark
p424
aVmarket
p425
aVmarquez
p426
aVmarriag
p427
aVmaster
p428
aVmatch
p429
aVmateri
p430
aVmath
p431
aVmcilroy
p432
aVmean
p433
aVmeasur
p434
aVmedal
p435
aVmedia
p436
aVmedic
p437
aVmedicin
p438
aVmember
p439
aVmen
p440
aVmental
p441
aVmickelson
p442
aVmidfield
p443
aVmight
p444
aVmile
p445
aVmiliband
p446
aVmiller
p447
aVminist
p448
aVministeri
p449
aVminut
p450
aVmiss
p451
aVmo
p452
aVmobil
p453
aVmole
p454
aVmonth
p455
aVmori
p456
aVmountain
p457
aVmp
p458
aVmps
p459
aVmr
p460
aVmrs
p461
aVms
p462
aVmuseum
p463
aVmusic
p464
aVmusician
p465
aVmutai
p466
aVmyanmar
p467
aVnatur
p468
aVneed
p469
aVneedl
p470
aVnegat
p471
aVnegoti
p472
aVnetwork
p473
aVnew
p474
aS'news'
p475
aVnhs
p476
aVnurseri
p477
aVobserv
p478
aVocean
p479
aVoecd
p480
aVoffer
p481
aVoffic
p482
aVoffsid
p483
aVofqual
p484
aVofst
p485
aVoften
p486
aVolymp
p487
aVonlin
p488
aVopenssl
p489
aVoper
p490
aVopposit
p491
aVoptic
p492
aVorbit
p493
aVorgan
p494
aVosborn
p495
aVoutsid
p496
aVown
p497
aVpair
p498
aVpanel
p499
aVpar
p500
aVparent
p501
aVparliament
p502
aVparliamentari
p503
aVparti
p504
aVpass
p505
aVpassword
p506
aVpatient
p507
aVpaul
p508
aVpay
p509
aVpenalti
p510
aVpeopl
p511
aVphil
p512
aVphoto
p513
aVpipelin
p514
aVpisa
p515
aVplace
p516
aVplan
p517
aVplanet
p518
aVplant
p519
aVplay
p520
aVplayer
p521
aVpoint
p522
aVpolici
p523
aVpolit
p524
aVpoll
p525
aVpoor
p526
aVpoorer
p527
aVpopulus
p528
aVpossess
p529
aVpower
p530
aVpractic
p531
aVpre-school
p532
aVpredat
p533
aVpremier
p534
aVpresid
p535
aVprice
p536
aVprimari
p537
aVprime
p538
aVproblem
p539
aVprocedur
p540
aVproduc
p541
aVproduct
p542
aVprof
p543
aVprogress
p544
aVproject
p545
aVproport
p546
aVpropos
p547
aVprosecut
p548
aVprovid
p549
aVpsychosi
p550
aVptsd
p551
aVpublic
p552
aVpupil
p553
aVpursu
p554
aVputin
p555
aVqualif
p556
aVqualiti
p557
aVquarter
p558
aVquestion
p559
aVrace
p560
aVrais
p561
aVrape
p562
aVrate
p563
aVrazor
p564
aVrealli
p565
aVrecord
p566
aVred
p567
aVrefere
p568
aVreferendum
p569
aVreform
p570
aVregiment
p571
aVreli
p572
aVreligi
p573
aVremain
p574
aVreplac
p575
aVreport
p576
aVrequir
p577
aVresearch
p578
aVreset
p579
aVresign
p580
aVrevis
p581
aVrider
p582
aVright
p583
aVroar
p584
aVrobot
p585
aVrole
p586
aVround
p587
aVrouter
p588
aVrun
p589
aVrunner
p590
aVrural
p591
aVrussia
p592
aVrussian
p593
aVryan
p594
aVsaid
p595
aVsale
p596
aVsalmond
p597
aVsalt
p598
aVsamsung
p599
aVsanction
p600
aVsatellit
p601
aVsatisfi
p602
aVsaunder
p603
aVsave
p604
aVsay
p605
aVscheme
p606
aVschool
p607
aVscienc
p608
aVscientif
p609
aVscientist
p610
aVscore
p611
aVscott
p612
aVsea
p613
aVsearch
p614
aVseason
p615
aVsecond
p616
aVsecondari
p617
aVsecretari
p618
aVsecur
p619
aVsemi-fin
p620
aVseparatist
p621
aVseptemb
p622
aVsergio
p623
aVseri
p624
aVservic
p625
aVset
p626
aVseven
p627
aVseventh
p628
aVsex
p629
aVsexual
p630
aVshadow
p631
aVshallow
p632
aVshield
p633
aVship
p634
aVshot
p635
aVshow
p636
aVshown
p637
aVside
p638
aVsignal
p639
aVsimilar
p640
aVsinc
p641
aVsing
p642
aVsingapor
p643
aVsinger
p644
aVsite
p645
aVsix
p646
aVskill
p647
aVsmartphon
p648
aVsocial
p649
aVsoftwar
p650
aVsolar
p651
aVsomalia
p652
aVsourc
p653
aVsouth
p654
aVspace
p655
aVspacecraft
p656
aVspain
p657
aVspeaker
p658
aVspeci
p659
aVspeech
p660
aVspent
p661
aVspokesman
p662
aVsport
p663
aVstadium
p664
aVstaff
p665
aVstate
p666
aVstay
p667
aVsteroid
p668
aVsteve
p669
aVsteven
p670
aVstigma
p671
aVstriker
p672
aVstudent
p673
aVstudi
p674
aVstuff
p675
aVsubject
p676
aVsubstitut
p677
aVsugar
p678
aVsuggest
p679
aVsunday
p680
aVsuper
p681
aVsuppli
p682
aVsupport
p683
aVsurfac
p684
aVsurviv
p685
aVsymptom
p686
aVsyndrom
p687
aVsystem
p688
aVtaiwan
p689
aVtaught
p690
aVtax
p691
aVteach
p692
aVteacher
p693
aVteam
p694
aVtech
p695
aVtechnolog
p696
aVtee
p697
aVtelevis
p698
aVtext
p699
aVtextbook
p700
aVth
p701
aVthatcher
p702
aVtheatr
p703
aVtherapi
p704
aVthink
p705
aVthird
p706
aVthree
p707
aVthree-tim
p708
aVtiger
p709
aVtissu
p710
aVtitl
p711
aVtns-bmrb
p712
aVtogeth
p713
aVtold
p714
aVtom
p715
aVtop
p716
aVtori
p717
aVtotal
p718
aVtough
p719
aVtour
p720
aVtournament
p721
aVtownsend
p722
aVtrade
p723
aVtrain
p724
aVtransplant
p725
aVtransport
p726
aVtreasuri
p727
aVtreat
p728
aVtreatment
p729
aVtri
p730
aVtumour
p731
aVturbin
p732
aVtv
p733
aVtwitter
p734
aVtwo
p735
aVtype
p736
aVuganda
p737
aVuk
p738
aVukrain
p739
aVukrainian
p740
aVun
p741
aVunderstand
p742
aVunderwat
p743
aVunesco
p744
aVunivers
p745
aVunpaid
p746
aVus
p747
aVuse
p748
aVuser
p749
aVvagina
p750
aVvictori
p751
aVvietnam
p752
aVvilla
p753
aVvirus
p754
aVvisit
p755
aVvote
p756
aVvoter
p757
aVvulner
p758
aVwage
p759
aVwait
p760
aVwale
p761
aVwant
p762
aVwatch
p763
aVwater
p764
aVwatson
p765
aVway
p766
aVwebsit
p767
aVweekend
p768
aVwelcom
p769
aVwell
p770
aVwelsh
p771
aVwembley
p772
aVwest
p773
aVwestern
p774
aVwestminst
p775
aVwestwood
p776
aVwheelchair
p777
aVwhitehal
p778
aVwiggin
p779
aVwilson
p780
aVwin
p781
aVwind
p782
aVwing
p783
aVwinner
p784
aVwolf
p785
aVwomen
p786
aVwon
p787
aVwoodward
p788
aVwork
p789
aVworld
p790
aVwould
p791
aVwreckag
p792
aVwriter
p793
aVwritten
p794
aVyard
p795
aVyear
p796
aVyear-old
p797
aVyougov
p798
aVyoung
p799
aVyoungster
p800
a.