(lp0
Va-level
p1
aVacadem
p2
aVacademi
p3
aVaccess
p4
aVaccount
p5
aVactor
p6
aVadrian
p7
aVae
p8
aVage
p9
aValbum
p10
aVamoruso
p11
aVanim
p12
aVarsenal
p13
aVart
p14
aVassist
p15
aVaston
p16
aVathlet
p17
aVatletico
p18
aVatmospher
p19
aVattack
p20
aVattempt
p21
aVaugusta
p22
aVaward
p23
aVbabi
p24
aVbafta
p25
aVball
p26
aVbamboo
p27
aVbank
p28
aVbbc
p29
aVbecc
p30
aVbird
p31
aVblair
p32
aVblock
p33
aVbn
p34
aVbook
p35
aVborrow
p36
aVbox
p37
aVbrain
p38
aVbrand
p39
aVbrown
p40
aVbug
p41
aVbuild
p42
aVburnley
p43
aVbusi
p44
aVbuyer
p45
aVby-elect
p46
aVcabinet
p47
aVcameron
p48
aVcampaign
p49
aVcancer
p50
aVcann
p51
aVcarbon
p52
aVcare
p53
aVcase
p54
aVcaus
p55
aVccs
p56
aVcell
p57
aVcentr
p58
aVchampion
p59
aVchampionship
p60
aVchancellor
p61
aVchang
p62
aVchemic
p63
aVchief
p64
aVchild
p65
aVchildren
p66
aVchronic
p67
aVchronotherapi
p68
aVcircumcis
p69
aVciti
p70
aVclass
p71
aVclassroom
p72
aVclimat
p73
aVclinic
p74
aVclub
p75
aVcoal
p76
aVcoalit
p77
aVcode
p78
aVcoderdojo
p79
aVcoin
p80
aVcolleg
p81
aVcomedi
p82
aVcommon
p83
aVcommonwealth
p84
aVcompani
p85
aVcomput
p86
aVcomr
p87
aVconced
p88
aVconfer
p89
aVconserv
p90
aVconstitu
p91
aVconsum
p92
aVcontain
p93
aVcontest
p94
aVcorner
p95
aVcould
p96
aVcouncil
p97
aVcouncillor
p98
aVcountri
p99
aVcours
p100
aVcourt
p101
aVcps
p102
aVcrisi
p103
aVcross
p104
aVcrystal
p105
aVcull
p106
aVcup
p107
aVcurrenc
p108
aVcurriculum
p109
aVcustom
p110
aVcyber-secur
p111
aVd-wave
p112
aVdark
p113
aVdata
p114
aVdavid
p115
aVdeaf
p116
aVdeath
p117
aVdebt
p118
aVdefens
p119
aVdegre
p120
aVdeliveri
p121
aVdemel
p122
aVdemocrat
p123
aVdenham
p124
aVdeputi
p125
aVdevelop
p126
aVdevi
p127
aVdiagnos
p128
aVdigit
p129
aVdisadvantag
p130
aVdiseas
p131
aVdisk
p132
aVdisord
p133
aVdmi
p134
aVdoctor
p135
aVdog
p136
aVdr
p137
aVdropbox
p138
aVdrug
p139
aVduopoli
p140
aVeat
p141
aVebay
p142
aVeconom
p143
aVeconomi
p144
aVed
p145
aVeduc
p146
aVeffect
p147
aVelect
p148
aVemiss
p149
aVenergi
p150
aVengin
p151
aVengland
p152
aVenglish
p153
aVepstein
p154
aVeu
p155
aVeuropean
p156
aVevan
p157
aVevelyn
p158
aVevi
p159
aVexam
p160
aVexplain
p161
aVexport
p162
aVfacebook
p163
aVfamili
p164
aVfan
p165
aVfarm
p166
aVfeather
p167
aVfeder
p168
aVfgm
p169
aVfilm
p170
aVfinal
p171
aVfind
p172
aVfinish
p173
aVfirm
p174
aVfitch
p175
aVfli
p176
aVfood
p177
aVfoot
p178
aVfootbal
p179
aVforest
p180
aVformer
p181
aVfoul
p182
aVfrack
p183
aVfree
p184
aVfuel
p185
aVfulham
p186
aVgame
p187
aVgas
p188
aVgazprom
p189
aVgcse
p190
aVgene
p191
aVgeneral
p192
aVgenet
p193
aVgirl
p194
aVglacier
p195
aVglass
p196
aVgoal
p197
aVgoat
p198
aVgoogl
p199
aVgordon
p200
aVgovern
p201
aVgp
p202
aVgrade
p203
aVgrowth
p204
aVhalf
p205
aVhalfpenni
p206
aVharass
p207
aVheader
p208
aVhealth
p209
aVheartble
p210
aVheat
p211
aVheld
p212
aVhepat
p213
aVhiggin
p214
aVhiv
p215
aVhiv-posit
p216
aVhong
p217
aVhospit
p218
aVhous
p219
aVhuman
p220
aVicann
p221
aVice
p222
aVicm
p223
aVimf
p224
aVimplant
p225
aVincreas
p226
aVindepend
p227
aVindustri
p228
aVinfect
p229
aVinform
p230
aVinstant
p231
aVinternet
p232
aVinvest
p233
aVinvestor
p234
aVipcc
p235
aVipso
p236
aVipsos-mori
p237
aVjason
p238
aVk
p239
aVkick
p240
aVkicksat
p241
aVkong
p242
aVlabour
p243
aVlambeth
p244
aVlanguag
p245
aVleader
p246
aVleadership
p247
aVleagu
p248
aVlearn
p249
aVlectur
p250
aVleft
p251
aVlend
p252
aVlender
p253
aVlenovo
p254
aVliao
p255
aVliber
p256
aVlibrari
p257
aVliver
p258
aVliverpool
p259
aVloan
p260
aVlocal
p261
aVlocat
p262
aVlord
p263
aVm
p264
aVmachin
p265
aVmagnet
p266
aVmaguir
p267
aVmail
p268
aVmainfram
p269
aVmalaria
p270
aVmali
p271
aVmap
p272
aVmarathon
p273
aVmarket
p274
aVmaster
p275
aVmatch
p276
aVmateri
p277
aVmath
p278
aVmatter
p279
aVmeasur
p280
aVmedal
p281
aVmedia
p282
aVmedic
p283
aVmember
p284
aVmen
p285
aVmicrosoft
p286
aVmiddlesbrough
p287
aVmiliband
p288
aVminist
p289
aVministeri
p290
aVmiss
p291
aVmodel
p292
aVmole
p293
aVmonaco
p294
aVmooc
p295
aVmori
p296
aVmortgag
p297
aVmosquito
p298
aVmp
p299
aVmps
p300
aVmr
p301
aVmrs
p302
aVmrsa
p303
aVmusic
p304
aVneedl
p305
aVnetwork
p306
aVnhs
p307
aVnorwich
p308
aVnottingham
p309
aVnurseri
p310
aVobserv
p311
aVocean
p312
aVoctob
p313
aVoffic
p314
aVoffsid
p315
aVofst
p316
aVolymp
p317
aVonlin
p318
aVopenreach
p319
aVopenssl
p320
aVoper
p321
aVopposit
p322
aVoutsid
p323
aVoverdraft
p324
aVp
p325
aVpain
p326
aVpalac
p327
aVpar
p328
aVparent
p329
aVpark
p330
aVparliament
p331
aVparliamentari
p332
aVparti
p333
aVpassword
p334
aVpatient
p335
aVpay
p336
aVpc
p337
aVpenalti
p338
aVpeopl
p339
aVplace
p340
aVplant
p341
aVplastic
p342
aVplay
p343
aVplayer
p344
aVpolic
p345
aVpolio
p346
aVpolit
p347
aVpoll
p348
aVpopulus
p349
aVpower
p350
aVpre-school
p351
aVpremier
p352
aVprice
p353
aVprimari
p354
aVprime
p355
aVproduc
p356
aVprof
p357
aVprofit
p358
aVproject
p359
aVproperti
p360
aVprosecut
p361
aVprostat
p362
aVprovid
p363
aVpublic
p364
aVpump
p365
aVpupil
p366
aVqualifi
p367
aVquantum
p368
aVquarter
p369
aVqueen
p370
aVrace
p371
aVranger
p372
aVrate
p373
aVreferendum
p374
aVreform
p375
aVregiment
p376
aVreleas
p377
aVreport
p378
aVresearch
p379
aVreshuffl
p380
aVresign
p381
aVretail
p382
aVright
p383
aVrise
p384
aVroyal
p385
aVrussia
p386
aVsacher
p387
aVsachertort
p388
aVsaid
p389
aVsale
p390
aVsalmond
p391
aVsamsung
p392
aVsanogo
p393
aVsatellit
p394
aVsave
p395
aVsay
p396
aVschool
p397
aVscienc
p398
aVscientif
p399
aVscientist
p400
aVscore
p401
aVscotch
p402
aVscotland
p403
aVscott
p404
aVscottish
p405
aVsea
p406
aVseason
p407
aVseat
p408
aVsecond
p409
aVsecretari
p410
aVsecur
p411
aVservic
p412
aVshadow
p413
aVshale
p414
aVshark
p415
aVship
p416
aVshot
p417
aVshow
p418
aVside
p419
aVsinger
p420
aVsissako
p421
aVskill
p422
aVskin
p423
aVsmartphon
p424
aVsnp
p425
aVsolicitor
p426
aVsong
p427
aVspace
p428
aVspeaker
p429
aVspeci
p430
aVspeech
p431
aVspeed
p432
aVsport
p433
aVsprite
p434
aVstaff
p435
aVstar
p436
aVsteroid
p437
aVstudent
p438
aVstudi
p439
aVsubject
p440
aVsuhair
p441
aVsunb
p442
aVsuppli
p443
aVsupplier
p444
aVsupport
p445
aVsurf
p446
aVsurfac
p447
aVsymptom
p448
aVsystem
p449
aVtax
p450
aVteach
p451
aVteacher
p452
aVteam
p453
aVtechnolog
p454
aVtemperatur
p455
aVth
p456
aVtheatr
p457
aVtherapi
p458
aVtimbuktu
p459
aVtitl
p460
aVtns-bmrb
p461
aVtoni
p462
aVtonn
p463
aVtori
p464
aVtournament
p465
aVtove
p466
aVtownsend
p467
aVtrade
p468
aVtreasuri
p469
aVtreat
p470
aVtreatment
p471
aVtree
p472
aVtumour
p473
aVtutor
p474
aVtwitter
p475
aVubani
p476
aVuganda
p477
aVuk
p478
aVukip
p479
aVukrain
p480
aVunion
p481
aVunivers
p482
aVunpaid
p483
aVuse
p484
aVuser
p485
aVv
p486
aVvictori
p487
aVvideo
p488
aVvilla
p489
aVvillag
p490
aVvirus
p491
aVvote
p492
aVvoter
p493
aVwant
p494
aVwater
p495
aVwave
p496
aVwelsh
p497
aVwestminst
p498
aVwhip
p499
aVwhiski
p500
aVwigan
p501
aVwin
p502
aVwinner
p503
aVwon
p504
aVwork
p505
aVwould
p506
aVws
p507
aVyear
p508
aVyougov
p509
aVyoung
p510
aVyoungster
p511
a.