(lp0
Va-level
p1
aVaanganwadi
p2
aVabderrahman
p3
aVaber
p4
aVabus
p5
aVacadem
p6
aVacademi
p7
aVaccess
p8
aVaccord
p9
aVaccount
p10
aVaccur
p11
aVaccus
p12
aVacid
p13
aVacquisit
p14
aVacquitt
p15
aVacross
p16
aVactiv
p17
aVactor
p18
aVactress
p19
aVactual
p20
aVadapt
p21
aVaddress
p22
aVadministr
p23
aVadomah
p24
aVadopt
p25
aVadrian
p26
aVadult
p27
aVadvertis
p28
aVadvis
p29
aVadvisor
p30
aVadvoc
p31
aVae
p32
aVaffair
p33
aVaffect
p34
aVafford
p35
aVafrica
p36
aVage
p37
aVagenc
p38
aVagreement
p39
aVaid
p40
aVair
p41
aVairbrak
p42
aVaircraft
p43
aValbum
p44
aValex
p45
aValibaba
p46
aValisha
p47
aValleg
p48
aValmost
p49
aValonso
p50
aValreadi
p51
aValso
p52
aValtern
p53
aValtimet
p54
aValtitud
p55
aValzheim
p56
aVamazon
p57
aVambul
p58
aVamira
p59
aVamoruso
p60
aVanalyst
p61
aVanchor
p62
aVancient
p63
aVanfield
p64
aVanim
p65
aVann
p66
aVanneal
p67
aVannex
p68
aVannounc
p69
aVannual
p70
aVanswer
p71
aVantarct
p72
aVantarctica
p73
aVanxieti
p74
aVanywher
p75
aVapp
p76
aVappl
p77
aVapplic
p78
aVappoint
p79
aVapril
p80
aVarea
p81
aVarmi
p82
aVaround
p83
aVarrest
p84
aVarsenal
p85
aVart
p86
aVarteta
p87
aVarthriti
p88
aVartist
p89
aVashley
p90
aVassang
p91
aVassault
p92
aVassembl
p93
aVassess
p94
aVassist
p95
aVassoci
p96
aVastl
p97
aVaston
p98
aVathlet
p99
aVatkin
p100
aVatl
p101
aVatlant
p102
aVatletico
p103
aVatmospher
p104
aVattack
p105
aVattempt
p106
aVattend
p107
aVattorney
p108
aVattribut
p109
aVauction
p110
aVaudienc
p111
aVaugust
p112
aVaugusta
p113
aVaustin
p114
aVaustria
p115
aVauthor
p116
aVautonom
p117
aVaverag
p118
aVaward
p119
aVawash
p120
aVbabi
p121
aVbackground
p122
aVbackstag
p123
aVbadger
p124
aVbafta
p125
aVbailout
p126
aVball
p127
aVballoon
p128
aVballot
p129
aVbamboo
p130
aVband
p131
aVbank
p132
aVbanknot
p133
aVbarcelona
p134
aVbarn
p135
aVbarr
p136
aVbarrist
p137
aVbase
p138
aVbatteri
p139
aVbattersea
p140
aVbbc
p141
aVbcm
p142
aVbean
p143
aVbear
p144
aVbeard
p145
aVbeat
p146
aVbeausejour
p147
aVbecam
p148
aVbecc
p149
aVbecom
p150
aVbee
p151
aVbehaviour
p152
aVben
p153
aVbenayoun
p154
aVbench
p155
aVbenefit
p156
aVbercow
p157
aVbereav
p158
aVberlin
p159
aVbest-sel
p160
aVbiggar
p161
aVbill
p162
aVbillion
p163
aVbiolog
p164
aVbird
p165
aVbirdi
p166
aVbirth
p167
aVblackthroat
p168
aVblair
p169
aVblizzard
p170
aVblock
p171
aVblood
p172
aVbloodhound
p173
aVbn
p174
aVbodi
p175
aVbogey
p176
aVbolasi
p177
aVbomb
p178
aVbond
p179
aVbonham
p180
aVbook
p181
aVbookingcom
p182
aVborn
p183
aVborrow
p184
aVbottom
p185
aVbowker
p186
aVbox
p187
aVboy
p188
aVboycott
p189
aVbradley
p190
aVbrailsford
p191
aVbrain
p192
aVbrand
p193
aVbrazil
p194
aVbreak
p195
aVbreed
p196
aVbrief
p197
aVbristol
p198
aVbritney
p199
aVbroadband
p200
aVbroadchurch
p201
aVbroadway
p202
aVbrown
p203
aVbrownel
p204
aVbst
p205
aVbt
p206
aVbubba
p207
aVbug
p208
aVbuild
p209
aVbuilder
p210
aVbuilt
p211
aVbulli
p212
aVbunker
p213
aVbureaucraci
p214
aVburkitt
p215
aVburnham
p216
aVburnley
p217
aVbusi
p218
aVbutcher
p219
aVbutt
p220
aVbutton
p221
aVbuy
p222
aVbuyer
p223
aVby-elect
p224
aVc
p225
aVcabinet
p226
aVcake
p227
aVcalcul
p228
aVcalf
p229
aVcall
p230
aVcallaghan
p231
aVcalv
p232
aVcambridgeshir
p233
aVcamera
p234
aVcameron
p235
aVcampaign
p236
aVcampus
p237
aVcancer
p238
aVcandid
p239
aVcanin
p240
aVcann
p241
aVcapabl
p242
aVcapit
p243
aVcaptain
p244
aVcaptur
p245
aVcar
p246
aVcarbon
p247
aVcard
p248
aVcardersu
p249
aVcare
p250
aVcareer
p251
aVcarri
p252
aVcarrol
p253
aVcase
p254
aVcassini
p255
aVcat
p256
aVcaught
p257
aVcaus
p258
aVcauson
p259
aVcautious
p260
aVcbi
p261
aVcbs
p262
aVccs
p263
aVcell
p264
aVcellan-jon
p265
aVcellulos
p266
aVcensor
p267
aVcentr
p268
aVcenturi
p269
aVcertif
p270
aVchampion
p271
aVchampionship
p272
aVchancellor
p273
aVchang
p274
aVcharcoal
p275
aVcharg
p276
aVchariti
p277
aVcheap
p278
aVcheat
p279
aVcheckout
p280
aVchelsea
p281
aVchemic
p282
aVchemotherapi
p283
aVcheng
p284
aVchick
p285
aVchief
p286
aVchild
p287
aVchildren
p288
aVchina
p289
aVchines
p290
aVchocol
p291
aVchoic
p292
aVchristian
p293
aVchronic
p294
aVchronotherapi
p295
aVchunk
p296
aVchurch
p297
aVchute
p298
aVcinematograph
p299
aVcircl
p300
aVcircumcis
p301
aVcirrhosi
p302
aVciti
p303
aVcivil
p304
aVclaim
p305
aVclair
p306
aVclam
p307
aVclarion
p308
aVclass
p309
aVclassic
p310
aVclassroom
p311
aVclick
p312
aVclimat
p313
aVclinic
p314
aVclip
p315
aVclose
p316
aVcloth
p317
aVcloud
p318
aVclub
p319
aVclwyd
p320
aVcm
p321
aVcml
p322
aVco
p323
aVco-author
p324
aVcoach
p325
aVcoal
p326
aVcoalit
p327
aVcoast
p328
aVcochlear
p329
aVcockpit
p330
aVcode
p331
aVcodenomicon
p332
aVcoder
p333
aVcoderdojo
p334
aVcoffe
p335
aVcognit
p336
aVcohabit
p337
aVcoin
p338
aVcolbert
p339
aVcollect
p340
aVcolleg
p341
aVcome
p342
aVcomedi
p343
aVcommando
p344
aVcommentari
p345
aVcommission
p346
aVcommitte
p347
aVcommon
p348
aVcommonest
p349
aVcommonwealth
p350
aVcommuniti
p351
aVcompani
p352
aVcompetit
p353
aVcompetitor
p354
aVcomplaint
p355
aVcomplex
p356
aVcompon
p357
aVcompromis
p358
aVcomput
p359
aVcomr
p360
aVconced
p361
aVconcern
p362
aVcondit
p363
aVcondoleezza
p364
aVconfer
p365
aVconflict
p366
aVconsecut
p367
aVconserv
p368
aVconsid
p369
aVconsist
p370
aVconstitu
p371
aVconstitut
p372
aVconsum
p373
aVcontact
p374
aVcontain
p375
aVcontent
p376
aVcontest
p377
aVcontin
p378
aVcontribut
p379
aVconvict
p380
aVcopyright
p381
aVcork
p382
aVcorner
p383
aVcorpor
p384
aVcortes
p385
aS'cosmos'
p386
aVcost
p387
aVcostum
p388
aVcould
p389
aVcouncil
p390
aVcouncillor
p391
aVcounti
p392
aVcountri
p393
aVcours
p394
aVcoursera
p395
aVcoursework
p396
aVcourt
p397
aVcoventri
p398
aVcoverag
p399
aVcps
p400
aVcreagh
p401
aVcreat
p402
aVcreativ
p403
aVcredit
p404
aVcrew
p405
aVcrime
p406
aVcrimea
p407
aVcrimin
p408
aVcrisi
p409
aVcrop
p410
aVcross
p411
aVcruelti
p412
aVcryosat
p413
aVcrystal
p414
aVcubic
p415
aVcull
p416
aVcultur
p417
aVcum
p418
aVcup
p419
aVcure
p420
aVcurrenc
p421
aVcurrent
p422
aVcurriculum
p423
aVcustom
p424
aVcvg
p425
aVcyber-attack
p426
aVcyber-secur
p427
aVd
p428
aVd-wave
p429
aVda
p430
aVdanger
p431
aVdaniel
p432
aVdanni
p433
aVdark
p434
aVdarwin
p435
aVdata
p436
aVdate
p437
aVdaughter
p438
aVdave
p439
aVdavid
p440
aVdavidson
p441
aVdeaf
p442
aVdean
p443
aVdeath
p444
aVdebt
p445
aVdebut
p446
aVdecid
p447
aVdecis
p448
aVdeclar
p449
aVdeduct
p450
aVdefeat
p451
aVdefect
p452
aVdefend
p453
aVdefens
p454
aVdeficit
p455
aVdeforest
p456
aVdegal
p457
aVdegrad
p458
aVdegre
p459
aVdelay
p460
aVdeliveri
p461
aVdem
p462
aVdemand
p463
aVdemel
p464
aVdementia
p465
aVdemocrat
p466
aVdenham
p467
aVdenticl
p468
aVdepart
p469
aVdeploy
p470
aVdeputi
p471
aVderiv
p472
aVdesign
p473
aVdetail
p474
aVdetect
p475
aVdevelop
p476
aVdevi
p477
aVdevic
p478
aVdevolut
p479
aVdevolv
p480
aVdiagnos
p481
aVdiagnosi
p482
aVdiagnost
p483
aVdictionari
p484
aVdie
p485
aVdiet
p486
aVdiffer
p487
aVdig
p488
aVdigit
p489
aVdinosaur
p490
aVdioxid
p491
aVdirector
p492
aVdisabl
p493
aVdisadvantag
p494
aVdischarg
p495
aVdiscoveri
p496
aVdiseas
p497
aVdisease-caus
p498
aVdisk
p499
aVdisord
p500
aVdisput
p501
aVdisrupt
p502
aVdistrict
p503
aVdivorc
p504
aVdiy
p505
aVdmi
p506
aVdoctor
p507
aVdocumentari
p508
aVdodman
p509
aVdog
p510
aVdojo
p511
aVdollar
p512
aVdon
p513
aVdonat
p514
aVdonor
p515
aVdown
p516
aVdownload
p517
aVdpp
p518
aVdr
p519
aVdraft
p520
aVdrama
p521
aVdrone
p522
aVdropbox
p523
aVdrug
p524
aVduamell
p525
aVdugher
p526
aVduopoli
p527
aVdvd
p528
aVe-commerc
p529
aVe-librari
p530
aS'earli'
p531
aVearlier
p532
aVearly-year
p533
aVearth
p534
aVeast
p535
aVeaster
p536
aVeat
p537
aVebay
p538
aVebola
p539
aVeconom
p540
aVeconomi
p541
aVeconomist
p542
aVed
p543
aVeduc
p544
aVeffect
p545
aVeffici
p546
aVegypt
p547
aVei
p548
aVelect
p549
aVelector
p550
aVelectr
p551
aVelectron
p552
aVemiss
p553
aVemploy
p554
aVemploye
p555
aVempti
p556
aVenceladus
p557
aVencourag
p558
aVencrypt
p559
aVenergi
p560
aVengin
p561
aVengland
p562
aVenglish
p563
aVenso
p564
aVensur
p565
aVentangl
p566
aVenter
p567
aVentertain
p568
aVenviron
p569
aVepstein
p570
aVerraught
p571
aVesrf
p572
aVesther
p573
aVestim
p574
aVeu
p575
aVeuro
p576
aVeurop
p577
aVeuropean
p578
aVeuroscept
p579
aVeurozon
p580
aVevad
p581
aVevan
p582
aVevas
p583
aVevelyn
p584
aVeven
p585
aVevi
p586
aVevid
p587
aVex-play
p588
aVexam
p589
aVexampl
p590
aVexecut
p591
aVexpedia
p592
aVexpens
p593
aVexperi
p594
aVexpert
p595
aVexplain
p596
aVexploit
p597
aVexplor
p598
aVexport
p599
aVextra
p600
aVextract
p601
aVeye
p602
aVfa
p603
aVfab
p604
aVfacebook
p605
aVfactor
p606
aVfaith
p607
aVfake
p608
aVfall
p609
aVfamili
p610
aVfamous
p611
aVfan
p612
aVfarah
p613
aVfargo
p614
aVfarm
p615
aVfashion
p616
aVfather
p617
aVfatti
p618
aVfault
p619
aVfavela
p620
aVfca
p621
aVfeather
p622
aVfeatur
p623
aVfed
p624
aVfeder
p625
aVfeel
p626
aVfell
p627
aVfellow
p628
aVfemal
p629
aVfer
p630
aVfernandinho
p631
aVferri
p632
aVfestiv
p633
aVfever
p634
aVfgm
p635
aVfield
p636
aVfight
p637
aVfigur
p638
aVfilm
p639
aVfinal
p640
aVfinanc
p641
aVfinanci
p642
aVfind
p643
aVfinish
p644
aVfirm
p645
aVfirst
p646
aVfish
p647
aVfitch
p648
aVfive
p649
aVflaw
p650
aVflexibl
p651
aVfli
p652
aVflight
p653
aVflood
p654
aVflow
p655
aVfood
p656
aVfoot
p657
aVfootbal
p658
aVforeign
p659
aVforest
p660
aVformal
p661
aVformer
p662
aVfossil
p663
aVfoul
p664
aVfound
p665
aVfoundat
p666
aVfour
p667
aVfour-year-old
p668
aVfpc
p669
aVfrack
p670
aVfraction
p671
aVfree
p672
aVfrontbench
p673
aVfrost
p674
aVfuel
p675
aVfulham
p676
aVfund
p677
aVfuner
p678
aVfunni
p679
aVfutur
p680
aVgaitskel
p681
aVgal
p682
aVgalaxi
p683
aVgame
p684
aVgang
p685
aVgap
p686
aVgarden
p687
aVgari
p688
aVgas
p689
aVgay
p690
aVgazprom
p691
aVgb
p692
aVgcse
p693
aVgcses
p694
aVgdp
p695
aVgeldof
p696
aVgene
p697
aVgeneral
p698
aVgenerat
p699
aVgenet
p700
aVgenit
p701
aVgenotyp
p702
aVget
p703
aVgilt
p704
aVgirl
p705
aVgiroud
p706
aVgive
p707
aVglacier
p708
aVglasgow
p709
aVglass
p710
aVglobal
p711
aVglobalis
p712
aVglonass
p713
aVgloucestershir
p714
aVglyndebourn
p715
aVgo
p716
aVgoal
p717
aVgoat
p718
aVgold
p719
aVgoogl
p720
aVgordon
p721
aVgore
p722
aVgovan
p723
aVgove
p724
aVgovern
p725
aVgp
p726
aVgps
p727
aVgrade
p728
aVgraduat
p729
aVgrand
p730
aVgraviti
p731
aVgray
p732
aVgreat
p733
aVgreater
p734
aVgreec
p735
aVgreek
p736
aVgreen
p737
aVgreenberg
p738
aVgreenhous
p739
aVgreenland
p740
aVgreg
p741
aVgriff
p742
aVgrope
p743
aVground
p744
aVgrow
p745
aVgrowth
p746
aVguidanc
p747
aVguinea
p748
aVgym
p749
aVhabitat
p750
aVhacker
p751
aVhair
p752
aVhalawa
p753
aVhalf
p754
aVhalfpenni
p755
aVhalfway
p756
aVhamilton
p757
aVhandbag
p758
aVhandset
p759
aVhandwrit
p760
aVharass
p761
aVhardwar
p762
aVharm
p763
aVharman
p764
aVharri
p765
aVhatch
p766
aVheadach
p767
aVheader
p768
aVheadwind
p769
aVhealth
p770
aVhealthi
p771
aVhealthier
p772
aVheard
p773
aVheartble
p774
aVheat
p775
aVheaven
p776
aVheld
p777
aVhelen
p778
aVhelp
p779
aVhepat
p780
aVherp
p781
aVhes
p782
aVhib
p783
aVhiggin
p784
aVhigh-end
p785
aVhigh-qual
p786
aVhigher
p787
aVhillsborough
p788
aVhine
p789
aVhistori
p790
aVhit
p791
aVhiv
p792
aVhiv-neg
p793
aVhiv-posit
p794
aVhockey
p795
aVhoilett
p796
aVhole
p797
aVholocaust
p798
aVholyrood
p799
aVhome
p800
aVhome-mad
p801
aVhonda
p802
aVhonest
p803
aVhong
p804
aVhonorari
p805
aVhormon
p806
aVhospit
p807
aVhotel
p808
aVhour
p809
aVhous
p810
aVhowev
p811
aVhub
p812
aVhugo
p813
aVhuman
p814
aVhunt
p815
aVhusband
p816
aVibm
p817
aVicahn
p818
aVicann
p819
aVice
p820
aViceberg
p821
aVicm
p822
aVidc
p823
aVidea
p824
aVidol
p825
aVill
p826
aVillustr
p827
aVimag
p828
aVimf
p829
aVimmigr
p830
aVimmun
p831
aVimmunis
p832
aVimogen
p833
aVimpact
p834
aVimplant
p835
aVimprov
p836
aVimpuls
p837
aVinclud
p838
aVincom
p839
aVincreas
p840
aVindepend
p841
aVindia
p842
aVinduc
p843
aVindustri
p844
aVinfant
p845
aVinfect
p846
aVinflat
p847
aVinform
p848
aVing
p849
aViniti
p850
aVinject
p851
aVinjuri
p852
aVinnov
p853
aVinsect
p854
aVinspector
p855
aVinstal
p856
aVinstant
p857
aVinstitut
p858
aVinsul
p859
aVinterest
p860
aVintern
p861
aVinternet
p862
aVinternship
p863
aVintroduc
p864
aVinvest
p865
aVinvestig
p866
aVinvestor
p867
aVipad
p868
aVipcc
p869
aVipso
p870
aVipsos-mori
p871
aVira
p872
aViran
p873
aViranian
p874
aVireland
p875
aViren
p876
aVirrit
p877
aVislamist
p878
aVisland
p879
aVisnt
p880
aVisp
p881
aVissu
p882
aVitun
p883
aVitv
p884
aVive
p885
aVjack
p886
aVjacket
p887
aVjagger
p888
aVjame
p889
aVjami
p890
aVjason
p891
aVjavid
p892
aVjdcom
p893
aVjean
p894
aVjeep
p895
aVjerom
p896
aVjet
p897
aVjewish
p898
aVjiaomei
p899
aVjihadist
p900
aVjoan
p901
aVjob
p902
aVjohn
p903
aVjohnson
p904
aVjone
p905
aVjordi
p906
aVjournal
p907
aVjpmorgan
p908
aVjudg
p909
aVjunior
p910
aVjuri
p911
aVjustic
p912
aVk
p913
aVkampala
p914
aVkamukama
p915
aVkasami
p916
aVkate
p917
aVkatz
p918
aVkeel
p919
aVkeen
p920
aVkey
p921
aVkick
p922
aVkicksat
p923
aVkieran
p924
aVkight
p925
aVkind
p926
aVkinnock
p927
aVkm
p928
aVknock
p929
aVknowledg
p930
aVkong
p931
aVkorea
p932
aVlab
p933
aVlabel
p934
aVlabor
p935
aVlabour
p936
aVlack
p937
aVlamb
p938
aVlambeth
p939
aVland
p940
aVlanguag
p941
aVlap
p942
aVlaptop
p943
aVlarg
p944
aVlatest
p945
aVlauder
p946
aVlaunch
p947
aVlaw
p948
aVlawrenc
p949
aVlawyer
p950
aVleadbitt
p951
aVleader
p952
aVleadership
p953
aVleagu
p954
aVlear
p955
aVlearn
p956
aVlearner
p957
aVlectur
p958
aVlee
p959
aVleech
p960
aVleft
p961
aVlegitim
p962
aVleicest
p963
aVlend
p964
aVlender
p965
aVlenovo
p966
aVleon
p967
aVleroy
p968
aVles
p969
aVless
p970
aVlesson
p971
aVletter
p972
aVletterman
p973
aVlevel
p974
aVliao
p975
aVliber
p976
aVlibrari
p977
aVlicenc
p978
aVlife
p979
aVlight
p980
aVlignit
p981
aVlindblad-toh
p982
aVlink
p983
aVlist
p984
aVliteraci
p985
aVliu
p986
aVlive
p987
aVliver
p988
aVliverpool
p989
aVlloyd
p990
aVlo
p991
aVloan
p992
aVlocal
p993
aVlocat
p994
aVloewenstein
p995
aVlog
p996
aVlondon
p997
aVlone
p998
aVlong-term
p999
aVlonger
p1000
aVlongitud
p1001
aVlord
p1002
aVlost
p1003
aVlove
p1004
aVluka
p1005
aVluke
p1006
aVlumo
p1007
aVlump
p1008
aVlung
p1009
aVlux
p1010
aVluxuri
p1011
aVlymphoma
p1012
aVm
p1013
aVmacdonald
p1014
aVmachin
p1015
aVmackey
p1016
aVmadrid
p1017
aVmaendeleo
p1018
aVmagazin
p1019
aVmagnet
p1020
aVmaguir
p1021
aVmail
p1022
aVmainfram
p1023
aVmainten
p1024
aVmajor
p1025
aVmake
p1026
aVmaker
p1027
aVmalaria
p1028
aVmalawi
p1029
aVmale
p1030
aVmali
p1031
aVman
p1032
aVmanchest
p1033
aVmandelson
p1034
aVmangan
p1035
aVmani
p1036
aVmap
p1037
aVmarathon
p1038
aVmarch
p1039
aVmargaret
p1040
aVmargin
p1041
aVmari
p1042
aVmarin
p1043
aVmarket
p1044
aVmarquez
p1045
aVmarri
p1046
aVmarriag
p1047
aVmass
p1048
aVmaster
p1049
aVmatch
p1050
aVmateri
p1051
aVmatern
p1052
aVmath
p1053
aVmatter
p1054
aVmay
p1055
aVmazda
p1056
aVmcarthur
p1057
aVmccallist
p1058
aVmccrea
p1059
aVmcguin
p1060
aVmcilroy
p1061
aVmeal
p1062
aVmean
p1063
aVmeasur
p1064
aVmeat
p1065
aVmechan
p1066
aVmedal
p1067
aVmedia
p1068
aVmedic
p1069
aVmedicin
p1070
aVmediterranean
p1071
aVmelanoma
p1072
aVmelt
p1073
aVmember
p1074
aVmembership
p1075
aVmemori
p1076
aVmen
p1077
aVmening
p1078
aVmental
p1079
aVmep
p1080
aVmertesack
p1081
aVmessag
p1082
aVmethod
p1083
aVmetropolitan
p1084
aVmiaomiao
p1085
aVmichael
p1086
aVmickelson
p1087
aVmicroscop
p1088
aVmicrosoft
p1089
aVmid
p1090
aVmiddlesbrough
p1091
aVmidfield
p1092
aVmidland
p1093
aVmight
p1094
aVmile
p1095
aVmiliband
p1096
aVmilitari
p1097
aVmillion
p1098
aVmin
p1099
aVminaj
p1100
aVmine
p1101
aVminimum
p1102
aVminist
p1103
aVministeri
p1104
aVminut
p1105
aVmiss
p1106
aVmission
p1107
aVmitig
p1108
aVmm
p1109
aVmns
p1110
aVmobil
p1111
aVmodel
p1112
aVmole
p1113
aVmolecul
p1114
aVmonaco
p1115
aVmonetari
p1116
aVmonth
p1117
aVmooc
p1118
aVmoon
p1119
aVmori
p1120
aVmortgag
p1121
aVmosquito
p1122
aVmotor
p1123
aVmotorola
p1124
aVmountain
p1125
aVmove
p1126
aVmovi
p1127
aVmp
p1128
aVmph
p1129
aVmps
p1130
aVmr
p1131
aVmri
p1132
aVmrs
p1133
aVmrsa
p1134
aVms
p1135
aVmuch
p1136
aVmummi
p1137
aVmurray
p1138
aVmuseum
p1139
aVmusic
p1140
aVmusician
p1141
aVmutil
p1142
aVmyanmar
p1143
aVmysteri
p1144
aVmyth
p1145
aVnasa
p1146
aVnasdaq
p1147
aVnasti
p1148
aVnathan
p1149
aVnationwid
p1150
aVnato
p1151
aVnatur
p1152
aVnavig
p1153
aVnazi
p1154
aVnear
p1155
aVnecessarili
p1156
aVneed
p1157
aVneedl
p1158
aVnegat
p1159
aVneil
p1160
aVnest
p1161
aVnetflix
p1162
aVnetwork
p1163
aVnew
p1164
aVnew-build
p1165
aVnewark
p1166
aS'news'
p1167
aVnhs
p1168
aVni
p1169
aVnigel
p1170
aVnino
p1171
aVnintendo
p1172
aVnitro
p1173
aVnomin
p1174
aVnordstrom
p1175
aVnorth
p1176
aVnorwich
p1177
aVnottingham
p1178
aVnpower
p1179
aVnuffield
p1180
aVnumber
p1181
aVnurseri
p1182
aVobscura
p1183
aVobserv
p1184
aVobtain
p1185
aVoccur
p1186
aVocd
p1187
aVocean
p1188
aVoceanethix
p1189
aVoctavian
p1190
aVoctob
p1191
aVoecd
p1192
aVofcom
p1193
aVoffa
p1194
aVoffer
p1195
aVoffic
p1196
aVoffici
p1197
aVoffshor
p1198
aVoffsid
p1199
aVofst
p1200
aVoften
p1201
aVoi
p1202
aVoil
p1203
aVolder
p1204
aVolsson
p1205
aVolymp
p1206
aVon
p1207
aVonlin
p1208
aVopenreach
p1209
aVopenssl
p1210
aVoper
p1211
aVopera
p1212
aVopinion
p1213
aVoppos
p1214
aVopposit
p1215
aVoptometrist
p1216
aVorbit
p1217
aVorchid
p1218
aVorgan
p1219
aVorganis
p1220
aVorphanag
p1221
aVos
p1222
aVosborn
p1223
aVother
p1224
aVoutbreak
p1225
aVoutsid
p1226
aVoverdraft
p1227
aVoversea
p1228
aVowe
p1229
aVown
p1230
aVoxlade-chamberlain
p1231
aVp
p1232
aVpaddl
p1233
aVpage
p1234
aVpain
p1235
aVpaint
p1236
aVpajtim
p1237
aVpakistan
p1238
aVpalac
p1239
aVpalaeontologist
p1240
aVpanel
p1241
aVpaper
p1242
aVpaperwork
p1243
aVpar
p1244
aVparcel
p1245
aVparent
p1246
aVpark
p1247
aVparkin
p1248
aVparliament
p1249
aVparliamentari
p1250
aVparti
p1251
aVparticl
p1252
aVpass
p1253
aVpasseng
p1254
aVpassword
p1255
aVpaterson
p1256
aVpatient
p1257
aVpaxman
p1258
aVpay
p1259
aVpayer
p1260
aVpayload
p1261
aVpayment
p1262
aVpaypal
p1263
aVpc
p1264
aVpeach
p1265
aVpeli
p1266
aVpeltier
p1267
aVpenalti
p1268
aVpenni
p1269
aVpension
p1270
aVpent-up
p1271
aVpeopl
p1272
aVpet
p1273
aVpharrel
p1274
aVphase
p1275
aVphilipp
p1276
aVphone
p1277
aVphoton
p1278
aVpickl
p1279
aVpictur
p1280
aVpiero
p1281
aVpilot
p1282
aVpinhol
p1283
aVpipelin
p1284
aVpisa
p1285
aVplace
p1286
aVplan
p1287
aVplane
p1288
aVplanet
p1289
aVplant
p1290
aVplastic
p1291
aVplatform
p1292
aVplay
p1293
aVplay-off
p1294
aVplayer
p1295
aVpocketspacecraft
p1296
aVpodolski
p1297
aVpolic
p1298
aVpolici
p1299
aVpolio
p1300
aVpolit
p1301
aVpolitician
p1302
aVpoll
p1303
aVpollut
p1304
aVpolym
p1305
aVpoor
p1306
aVpoorer
p1307
aVpop
p1308
aVpopul
p1309
aVpopulus
p1310
aVportrait
p1311
aVposit
p1312
aVpossibl
p1313
aVpost
p1314
aVpostal
p1315
aVpostgradu
p1316
aVpotenti
p1317
aVpoverti
p1318
aVpower
p1319
aVpp
p1320
aVpractic
p1321
aVpre-school
p1322
aVprecipit
p1323
aVprecis
p1324
aVpremier
p1325
aVpremium
p1326
aVpresid
p1327
aVprevent
p1328
aVprice
p1329
aVprimari
p1330
aVprime
p1331
aVprinc
p1332
aVprint
p1333
aVprinter
p1334
aVprivat
p1335
aVprix
p1336
aVprize
p1337
aVpro
p1338
aVproblem
p1339
aVproblem-solv
p1340
aVprocedur
p1341
aVprocess
p1342
aVprocur
p1343
aVproduc
p1344
aVproduct
p1345
aVprof
p1346
aVprofessor
p1347
aVprofit
p1348
aVproject
p1349
aVproper
p1350
aVproperti
p1351
aVproport
p1352
aVprosecut
p1353
aVprosecutor
p1354
aVprostat
p1355
aVprovid
p1356
aVprovis
p1357
aVpsychosi
p1358
aVpsychotherapi
p1359
aVptsd
p1360
aVpublic
p1361
aVpublish
p1362
aVpump
p1363
aVpuncheon
p1364
aVpupil
p1365
aVpurchas
p1366
aVputin
p1367
aVqualifi
p1368
aVqualiti
p1369
aVquantum
p1370
aVquarter
p1371
aVqubit
p1372
aVqueen
p1373
aVrace
p1374
aVracket
p1375
aVradar
p1376
aVradio
p1377
aVrais
p1378
aVrandi
p1379
aVrandom
p1380
aVranger
p1381
aVrank
p1382
aVrape
p1383
aVrate
p1384
aVravel
p1385
aVrazor
p1386
aVread
p1387
aVrecal
p1388
aVrecord
p1389
aVrecruit
p1390
aVrecycl
p1391
aVred
p1392
aVredmond
p1393
aVreduc
p1394
aVreferendum
p1395
aVreform
p1396
aVregiment
p1397
aVregul
p1398
aVrelay
p1399
aVreleas
p1400
aVreli
p1401
aVreligi
p1402
aVremark
p1403
aVremov
p1404
aVrenew
p1405
aVrepair
p1406
aVrepay
p1407
aVreplac
p1408
aVreport
p1409
aVrepurpos
p1410
aVresearch
p1411
aVreset
p1412
aVreshuffl
p1413
aVresid
p1414
aVresign
p1415
aVrespons
p1416
aVretail
p1417
aVretain
p1418
aVrevenu
p1419
aVreview
p1420
aVrevis
p1421
aVrheumatoid
p1422
aVrhythm
p1423
aVribbl
p1424
aVrice
p1425
aVright
p1426
aVrio
p1427
aVrise
p1428
aVrisk
p1429
aVrival
p1430
aVriver
p1431
aVrobert
p1432
aVrobin
p1433
aVrobot
p1434
aVrobust
p1435
aVrock
p1436
aVrodallega
p1437
aVrodger
p1438
aVrole
p1439
aVrolex
p1440
aVrooftop
p1441
aVrooney
p1442
aVrosberg
p1443
aVrose
p1444
aVround
p1445
aVrouter
p1446
aVrowley
p1447
aVroyal
p1448
aVrt
p1449
aVrubasingham
p1450
aVrubber
p1451
aVrugbi
p1452
aVrule
p1453
aVrural
p1454
aVrussia
p1455
aVrussian
p1456
aVryan
p1457
aVsacher
p1458
aVsachertort
p1459
aVsack
p1460
aVsagna
p1461
aVsaid
p1462
aVsaigon
p1463
aVsaint
p1464
aVsale
p1465
aVsaliva
p1466
aVsalmond
p1467
aVsalon
p1468
aVsalt
p1469
aVsampl
p1470
aVsamsung
p1471
aVsanction
p1472
aVsanogo
p1473
aVsatellit
p1474
aVsatir
p1475
aVsatisfi
p1476
aVsaturn
p1477
aVsaunder
p1478
aVsave
p1479
aVsay
p1480
aVscale
p1481
aVscan
p1482
aVscandal
p1483
aVscar
p1484
aVsceptic
p1485
aVschaeubl
p1486
aVschizophrenia
p1487
aVschneider
p1488
aVschneier
p1489
aVschool
p1490
aVschool-bas
p1491
aVscienc
p1492
aVscientif
p1493
aVscientist
p1494
aVscore
p1495
aVscotch
p1496
aVscotland
p1497
aVscott
p1498
aVscottish
p1499
aVscout
p1500
aVscratch
p1501
aVscreen
p1502
aVscrutinis
p1503
aVsea
p1504
aVsea-level
p1505
aVseason
p1506
aVseat
p1507
aVsec
p1508
aVsecond
p1509
aVsecretari
p1510
aVsector
p1511
aVsecur
p1512
aVseen
p1513
aVself-harm
p1514
aVsell
p1515
aVsemi-fin
p1516
aVseri
p1517
aVserious
p1518
aVserum
p1519
aVserv
p1520
aVserver
p1521
aVservic
p1522
aVseven
p1523
aVseventh
p1524
aVsever
p1525
aVsewol
p1526
aVsex
p1527
aVsexual
p1528
aVshadow
p1529
aVshale
p1530
aVshallow
p1531
aVshape
p1532
aVshare
p1533
aVsharehold
p1534
aVshark
p1535
aVsheet
p1536
aVshes
p1537
aVship
p1538
aVshipley
p1539
aVshipment
p1540
aVshop
p1541
aVshot
p1542
aVshouldnt
p1543
aVshow
p1544
aVsick
p1545
aVside
p1546
aVsidwel
p1547
aVsierra
p1548
aVsignal
p1549
aVsimeon
p1550
aVsimilar
p1551
aVsimmon
p1552
aVsing
p1553
aVsingapor
p1554
aVsinger
p1555
aVsinn
p1556
aVsissako
p1557
aVsistema
p1558
aVsite
p1559
aVsix
p1560
aVsiyi
p1561
aVskill
p1562
aVskin
p1563
aVsleep
p1564
aVsmall
p1565
aVsmaller
p1566
aVsmartphon
p1567
aVsmes
p1568
aVsnodgrass
p1569
aVsnow
p1570
aVsnp
p1571
aVsnps
p1572
aVsocial
p1573
aVsocieti
p1574
aVsoftwar
p1575
aVsoil
p1576
aVsolar
p1577
aVsold
p1578
aVsolicitor
p1579
aVsolut
p1580
aVsolv
p1581
aVsong
p1582
aVsophist
p1583
aVsoprano
p1584
aVsound
p1585
aVsourc
p1586
aVsouthampton
p1587
aVsouthern
p1588
aVspace
p1589
aVspacecraft
p1590
aVspain
p1591
aVspeak
p1592
aVspeaker
p1593
aVspeci
p1594
aVspecimen
p1595
aVspeech
p1596
aVspeed
p1597
aVspend
p1598
aVspider
p1599
aVspider-man
p1600
aVspintron
p1601
aVspokesman
p1602
aVsport
p1603
aVspot
p1604
aVspread
p1605
aVsprite
p1606
aVsquad
p1607
aVsse
p1608
aVssl
p1609
aVst
p1610
aVstadium
p1611
aVstaff
p1612
aVstaffordshir
p1613
aVstage
p1614
aVstairway
p1615
aVstar
p1616
aVstarcraft
p1617
aVstarter
p1618
aVstate
p1619
aVstation
p1620
aVsteadi
p1621
aVsteroid
p1622
aVsteve
p1623
aVstick
p1624
aVstigma
p1625
aVstill
p1626
aVstillbirth
p1627
aVstock
p1628
aVstone
p1629
aVstood
p1630
aVstorag
p1631
aVstore
p1632
aVstori
p1633
aVstream
p1634
aVstress
p1635
aVstriker
p1636
aVstructur
p1637
aVstudent
p1638
aVstudi
p1639
aVsuarez
p1640
aVsub-saharan
p1641
aVsubject
p1642
aVsubstitut
p1643
aVsuck
p1644
aVsue
p1645
aVsuffer
p1646
aVsugar
p1647
aVsuggest
p1648
aVsuhair
p1649
aVsummer
p1650
aVsunb
p1651
aVsunday
p1652
aVsupermarket
p1653
aVsuppli
p1654
aVsupplier
p1655
aVsupport
p1656
aVsurf
p1657
aVsurfac
p1658
aVsurgeon
p1659
aVsurrey
p1660
aVsurvat
p1661
aVsurvey
p1662
aVsustain
p1663
aVswa
p1664
aVswansea
p1665
aVsweet
p1666
aVswim
p1667
aVswimmer
p1668
aVswinney
p1669
aVsylva
p1670
aVsymptom
p1671
aVsynchrotron
p1672
aVsyndrom
p1673
aVsynthet
p1674
aVsystem
p1675
aVtablet
p1676
aVtaiwan
p1677
aVtalent
p1678
aVtan
p1679
aVtank
p1680
aVtariff
p1681
aVtaught
p1682
aVtax
p1683
aVtb
p1684
aVteach
p1685
aVteacher
p1686
aVteacher-l
p1687
aVteam
p1688
aVteam-mat
p1689
aVtebbit
p1690
aVtechnician
p1691
aVtechnolog
p1692
aVteen
p1693
aVteenag
p1694
aVtehran
p1695
aVtelevis
p1696
aVtemperatur
p1697
aVtencent
p1698
aVterroris
p1699
aVtes
p1700
aVtesco
p1701
aVtest
p1702
aVtesticular
p1703
aVtextbook
p1704
aVth
p1705
aVthane
p1706
aVthatcher
p1707
aVtheatr
p1708
aVtherapi
p1709
aVthink
p1710
aVthird
p1711
aVthousand
p1712
aVthreat
p1713
aVthursday
p1714
aVticket
p1715
aVtiger
p1716
aVtimber
p1717
aVtimbuktu
p1718
aVtini
p1719
aVtissu
p1720
aVtitl
p1721
aVtns-bmrb
p1722
aVtns-brmb
p1723
aVtnt
p1724
aVtold
p1725
aVtom
p1726
aVtomlin
p1727
aVtoni
p1728
aVtonn
p1729
aVtop
p1730
aVtopic
p1731
aVtopographi
p1732
aVtori
p1733
aVtour
p1734
aVtournament
p1735
aVtove
p1736
aVtoward
p1737
aVtownsend
p1738
aVtoxic
p1739
aVtoyota
p1740
aVtrace
p1741
aVtrade
p1742
aVtragedi
p1743
aVtrain
p1744
aVtransact
p1745
aVtransmit
p1746
aVtransplant
p1747
aVtransport
p1748
aVtrauma
p1749
aVtraumat
p1750
aVtreasuri
p1751
aVtreat
p1752
aVtreatment
p1753
aVtree
p1754
aVtrend
p1755
aVtri
p1756
aVtrial
p1757
aVtribut
p1758
aVtrichomoniasi
p1759
aVtrickett
p1760
aVtricycl
p1761
aVtrophi
p1762
aVtropic
p1763
aVtrust
p1764
aVtuition
p1765
aVtumour
p1766
aVturbin
p1767
aVtutor
p1768
aVtv
p1769
aVtwin
p1770
aVtwitter
p1771
aVtwo
p1772
aVtwo-hour
p1773
aVtype
p1774
aVu
p1775
aVubani
p1776
aVuganda
p1777
aVugandan
p1778
aVuk
p1779
aVukip
p1780
aVukrain
p1781
aVukrainian
p1782
aVultra-hd
p1783
aVun
p1784
aVundercov
p1785
aVundergradu
p1786
aVunderground
p1787
aVunderstand
p1788
aVunderwat
p1789
aVunesco
p1790
aVunhappi
p1791
aVunilev
p1792
aVunion
p1793
aVunit
p1794
aVunivers
p1795
aVunman
p1796
aVunnecessari
p1797
aVunpaid
p1798
aVurban
p1799
aVuruguay
p1800
aVus
p1801
aVuse
p1802
aVuser
p1803
aVuwimana
p1804
aVv
p1805
aVvaccin
p1806
aVvagina
p1807
aVvalu
p1808
aVvan
p1809
aVvarious
p1810
aVvector
p1811
aVvehicl
p1812
aVvelvet
p1813
aVversion
p1814
aVveterinari
p1815
aVvictori
p1816
aVvideo
p1817
aVview
p1818
aVvilla
p1819
aVvillag
p1820
aVvintag
p1821
aVviolenc
p1822
aVviolent
p1823
aVvirus
p1824
aVvision
p1825
aVvisit
p1826
aVvivero
p1827
aVvoic
p1828
aVvolk
p1829
aVvolum
p1830
aVvolunt
p1831
aVvoluntari
p1832
aVvote
p1833
aVvoter
p1834
aVvulner
p1835
aVwage
p1836
aVwait
p1837
aVwale
p1838
aVwalk
p1839
aVwalli
p1840
aVwant
p1841
aVwarm
p1842
aVwarn
p1843
aVwast
p1844
aVwater
p1845
aVwatkin
p1846
aVwatson
p1847
aVwave
p1848
aVweb
p1849
aVwebsit
p1850
aVwecycl
p1851
aVweek
p1852
aVweekend
p1853
aVweir
p1854
aVwelsh
p1855
aVwestminst
p1856
aVwestwood
p1857
aVwhale
p1858
aVwheelchair
p1859
aVwhip
p1860
aVwhiski
p1861
aVwhitehal
p1862
aVwhole
p1863
aVwife
p1864
aVwig
p1865
aVwigan
p1866
aVwin
p1867
aVwind
p1868
aVwindow
p1869
aVwing
p1870
aVwinner
p1871
aVwinter
p1872
aVwiseman
p1873
aVwolfenstein
p1874
aVwolverhampton
p1875
aVwoman
p1876
aVwomen
p1877
aVwon
p1878
aVwood
p1879
aVwoodland
p1880
aVwoodward
p1881
aVwork
p1882
aVworker
p1883
aVworkload
p1884
aVworld
p1885
aVwould
p1886
aVwreckag
p1887
aVwrite
p1888
aVwriter
p1889
aVwritten
p1890
aVwrote
p1891
aVws
p1892
aVx-forc
p1893
aVx-ray
p1894
aVxinhua
p1895
aVxp
p1896
aVy
p1897
aVyamaha
p1898
aVyangon
p1899
aVyannick
p1900
aVyard
p1901
aVyaya
p1902
aVyear
p1903
aVyear-old
p1904
aVyellen
p1905
aVyellow
p1906
aVyes
p1907
aVyield
p1908
aVyork
p1909
aVyougov
p1910
aVyoung
p1911
aVyoungster
p1912
aVzeppelin
p1913
aVzig-zag
p1914
aVzoo
p1915
aVzoopla
p1916
a.