(lp0
Va-level
p1
aVaa
p2
aVaaa
p3
aVababa
p4
aVabandon
p5
aVabbot
p6
aVabc
p7
aVaberdeen
p8
aVabhorr
p9
aVabil
p10
aVabingdon
p11
aVabl
p12
aVable-bodi
p13
aVabnorm
p14
aVabort
p15
aVabound
p16
aVabove-infl
p17
aVabraham
p18
aVabram
p19
aVabroad
p20
aVabsenc
p21
aVabsent
p22
aVabshero
p23
aVabsolut
p24
aVabsorb
p25
aVabu
p26
aVabund
p27
aVabus
p28
aVaca
p29
aVacadem
p30
aVacademi
p31
aVacceler
p32
aVaccentu
p33
aVaccept
p34
aVaccess
p35
aVaccessori
p36
aVaccid
p37
aVaccident
p38
aVacclaim
p39
aVaccolad
p40
aVaccommod
p41
aVaccompani
p42
aVaccomplish
p43
aVaccord
p44
aVaccount
p45
aVaccrington
p46
aVaccumul
p47
aVaccur
p48
aVaccuraci
p49
aVaccus
p50
aVaccustom
p51
aVace
p52
aVach
p53
aVachiev
p54
aVacknowledg
p55
aVacn
p56
aVacoust
p57
aVacquir
p58
aVacquisit
p59
aVacquit
p60
aVacquitt
p61
aVacrobat
p62
aVacross
p63
aVact
p64
aVaction
p65
aVactiv
p66
aVactivist
p67
aVacton
p68
aVactor
p69
aVactress
p70
aVactual
p71
aVacut
p72
aVad
p73
aVadam
p74
aVadapt
p75
aVadd
p76
aVadderley
p77
aVaddi
p78
aVaddict
p79
aVaddit
p80
aVaddress
p81
aVadel
p82
aVadequ
p83
aVaderin
p84
aVadjac
p85
aVadject
p86
aVadjourn
p87
aVadjust
p88
aVadministr
p89
aVadmir
p90
aVadmiss
p91
aVadmit
p92
aVadolesc
p93
aVadomah
p94
aVadopt
p95
aVador
p96
aVadorn
p97
aVadrian
p98
aVadrianmolewillliveforev
p99
aVadrin
p100
aVadult
p101
aVadulthood
p102
aVadvanc
p103
aVadvantag
p104
aVadvent
p105
aVadventur
p106
aVadvers
p107
aVadversari
p108
aVadvert
p109
aVadvertis
p110
aVadvic
p111
aVadvis
p112
aVadvisor
p113
aVadvisori
p114
aVadvoc
p115
aVae
p116
aVaerial
p117
aVaerodynam
p118
aVaeroplan
p119
aVaerospac
p120
aVaffair
p121
aVaffect
p122
aVaffili
p123
aVaffin
p124
aVaffirm
p125
aVaffluent
p126
aVafford
p127
aVafghanistan
p128
aVafraid
p129
aVafrica
p130
aVafrican
p131
aVafrican-american
p132
aVafriqu
p133
aVafter-effect
p134
aVaftermath
p135
aVafternoon
p136
aVafterward
p137
aVafzal
p138
aVagbonlahor
p139
aVage
p140
aVageless
p141
aVagenc
p142
aVagenda
p143
aVagent
p144
aVaggress
p145
aVago
p146
aVagora
p147
aVagora-energiewend
p148
aVagre
p149
aVagreement
p150
aVagricultur
p151
aVaguascalient
p152
aVaguero
p153
aVaguilar
p154
aVah
p155
aVahead
p156
aVahmadi
p157
aVaid
p158
aVaim
p159
aVaintre
p160
aVair
p161
aVair-bush
p162
aVair-condit
p163
aVair-travel
p164
aVairbag
p165
aVairbus
p166
aVaircraft
p167
aVaird
p168
aVairlin
p169
aVairport
p170
aVaitor
p171
aVajmal
p172
aVajud
p173
aVaka
p174
aVal
p175
aVal-qaeda-link
p176
aVal-shabab
p177
aValam
p178
aValan
p179
aValarm
p180
aValastair
p181
aValbarn
p182
aValbeit
p183
aValbert
p184
aValberto
p185
aValbion
p186
aValbrighton
p187
aValbum
p188
aValcohol
p189
aValdridg
p190
aValeem
p191
aValeix
p192
aValeksandar
p193
aValenia
p194
aValert
p195
aValex
p196
aValexand
p197
aValgi
p198
aValgorithm
p199
aValief
p200
aValight
p201
aValign
p202
aValik
p203
aValison
p204
aValistair
p205
aValiv
p206
aVall-mal
p207
aVall-seat
p208
aVall-tim
p209
aVallan
p210
aValleg
p211
aVallen
p212
aValli
p213
aVallianc
p214
aValliss
p215
aValloc
p216
aVallow
p217
aValluvi
p218
aValmighti
p219
aValmost
p220
aValon
p221
aValong
p222
aValongsid
p223
aValp
p224
aValpesh
p225
aValpha
p226
aValpin
p227
aValreadi
p228
aValright
p229
aValso
p230
aValter
p231
aValtern
p232
aValthough
p233
aValtimet
p234
aValtitud
p235
aValtogeth
p236
aValum
p237
aValuminium
p238
aValun
p239
aValvaro
p240
aValway
p241
aValzheim
p242
aVamalgam
p243
aVamass
p244
aVamateur
p245
aVamaz
p246
aVamazon
p247
aVambassador
p248
aVambienc
p249
aVambit
p250
aVambiti
p251
aVambul
p252
aVamen
p253
aVamend
p254
aVamerica
p255
aVamerican
p256
aVamericano
p257
aVami
p258
aVamic
p259
aVamid
p260
aVamir
p261
aVammunit
p262
aVamnesti
p263
aVamo
p264
aVamong
p265
aVamongst
p266
aVamount
p267
aVamplifi
p268
aVamulet
p269
aVamus
p270
aVanabol
p271
aVanalog
p272
aVanalys
p273
aVanalysi
p274
aVanalyst
p275
aVanarchist
p276
aVancestor
p277
aVanchor
p278
aVancient
p279
aVanderson
p280
aVandi
p281
aVandr
p282
aVandrea
p283
aVandrew
p284
aVandroid
p285
aVanfield
p286
aVangel
p287
aVangela
p288
aVangelina
p289
aVanger
p290
aVangl
p291
aVanglo-american
p292
aVanglo-irish
p293
aVangri
p294
aVanim
p295
aVann
p296
aVanna
p297
aVannan
p298
aVannett
p299
aVannex
p300
aVanniversari
p301
aVannounc
p302
aVannoy
p303
aVannual
p304
aVannum
p305
aVanonym
p306
aVanorexia
p307
aVanoth
p308
aVanswer
p309
aVantagonis
p310
aVantarctica
p311
aVanthem
p312
aVanthoni
p313
aVanti-anxieti
p314
aVanti-busi
p315
aVanti-retrovir
p316
aVanti-shark
p317
aVanti-soci
p318
aVantibiot
p319
aVanticip
p320
aVantidepress
p321
aVantonio
p322
aVanxieti
p323
aVanxious
p324
aVanybodi
p325
aVanymor
p326
aVanyon
p327
aVanyth
p328
aVanytim
p329
aVanyway
p330
aVanywher
p331
aVaoyama
p332
aVapac
p333
aVapart
p334
aVapiec
p335
aVaplasia
p336
aVapolog
p337
aVapologis
p338
aVapp
p339
aVappar
p340
aVapparatus
p341
aVappeal
p342
aVappear
p343
aVappeas
p344
aVappetit
p345
aVappl
p346
aVapplaud
p347
aVappli
p348
aVapplianc
p349
aVapplic
p350
aVappoint
p351
aVappreci
p352
aVapprentic
p353
aVapprenticeship
p354
aVapproach
p355
aVappropri
p356
aVapprov
p357
aVapprox
p358
aVapproxim
p359
aVapril
p360
aVaptitud
p361
aVaquarium
p362
aVar
p363
aVarab
p364
aVarabia
p365
aVarboretum
p366
aVarchaic
p367
aVarcher
p368
aVarchitect
p369
aVarchitectur
p370
aVarchiv
p371
aVarctic
p372
aVarea
p373
aVarent
p374
aVarfield
p375
aVargentin
p376
aVargentina
p377
aVargu
p378
aVarguabl
p379
aVargument
p380
aVarisen
p381
aVaristocrat
p382
aVarm
p383
aVarmi
p384
aVarmitag
p385
aVarmstrong
p386
aVarmtrac
p387
aVarn
p388
aVarni
p389
aVarnold
p390
aVaround
p391
aVarous
p392
aVarrang
p393
aVarray
p394
aVarrest
p395
aVarriv
p396
aVarrog
p397
aVarsenal
p398
aVarseniy
p399
aVart
p400
aVartefact
p401
aVarthur
p402
aVarticl
p403
aVarticul
p404
aVartist
p405
aVartwork
p406
aVarundel
p407
aVascent
p408
aVasean
p409
aVash
p410
aVash-whit
p411
aVashcroft
p412
aVashdown
p413
aVashley
p414
aVashton
p415
aVashworth
p416
aVasia
p417
aVasian
p418
aVasid
p419
aVask
p420
aVaspect
p421
aVasphalt
p422
aVaspir
p423
aVassault
p424
aVassembl
p425
aVassert
p426
aVassess
p427
aVassessor
p428
aVasset
p429
aVassidu
p430
aVassign
p431
aVassist
p432
aVassoci
p433
aVassum
p434
aVassumpt
p435
aVassur
p436
aVastala
p437
aVasterix
p438
aVasthma
p439
aVaston
p440
aVastonish
p441
aVat-a-gl
p442
aVatala
p443
aVate
p444
aVateneo
p445
aVatheist
p446
aVathen
p447
aVathlet
p448
aVathough
p449
aVatl
p450
aVatlant
p451
aVatlanta
p452
aVatlanta-bas
p453
aVatleti
p454
aVatletico
p455
aVatmospher
p456
aVattach
p457
aVattack
p458
aVattack-mind
p459
aVattain
p460
aVattempt
p461
aVattenborough
p462
aVattend
p463
aVattent
p464
aVatterwasch
p465
aVattest
p466
aVattitud
p467
aVattle
p468
aVattorney
p469
aVattract
p470
aVattribut
p471
aVauction
p472
aVaudienc
p473
aVaudio-descript
p474
aVaudiolog
p475
aVaudit
p476
aVaugment
p477
aVaugust
p478
aVaugusta
p479
aVaung
p480
aVauschwitz
p481
aVauster
p482
aVaustralia
p483
aVaustralian
p484
aVaustria
p485
aVauthor
p486
aVautism
p487
aVautist
p488
aVautobiographi
p489
aVautom
p490
aVautomat
p491
aVautomot
p492
aVautonom
p493
aVautumn
p494
aVauv
p495
aVav
p496
aVavail
p497
aVaverag
p498
aVaviat
p499
aVaviv
p500
aVavoid
p501
aVavonmouth
p502
aVaw
p503
aVawait
p504
aVawar
p505
aVaward
p506
aVawards-nomin
p507
aVawash
p508
aVaway
p509
aVawesom
p510
aVawkward
p511
aVaxe
p512
aVayala
p513
aVayel
p514
aVayer
p515
aVayoad
p516
aVayr
p517
aVazalea
p518
aVazing
p519
aVaztec
p520
aVb
p521
aVb-
p522
aVbabi
p523
aVbaccalaur
p524
aVbachelor
p525
aVback
p526
aVback-lin
p527
aVback-nin
p528
aVback-slap
p529
aVback-to-back
p530
aVback-up
p531
aVbackbench
p532
aVbackground
p533
aVbacklash
p534
aVbackshal
p535
aVbackstag
p536
aVbackstrok
p537
aVbacteria
p538
aVbad
p539
aVbaddiel
p540
aVbadenoch
p541
aVbadg
p542
aVbadger
p543
aVbafta
p544
aVbag
p545
aVbaggi
p546
aVbaggott
p547
aVbaghdad
p548
aVbagmen
p549
aVbahman
p550
aVbail
p551
aVbailey
p552
aVbailout
p553
aVbait
p554
aVbake
p555
aVbake-off
p556
aVbaker
p557
aVbalado
p558
aVbalanc
p559
aVball
p560
aVballoon
p561
aVballot
p562
aVbaltic
p563
aVbamboo
p564
aVbamboo-product
p565
aVban
p566
aVbanana
p567
aVband
p568
aVbandi
p569
aVbandit
p570
aVbandwagon
p571
aVbang
p572
aVbangkok
p573
aVbank
p574
aVbanker
p575
aVbanknot
p576
aVbanquet
p577
aVbao
p578
aVbaptist
p579
aVbar
p580
aVbarack
p581
aVbarb
p582
aVbarbecu
p583
aVbarcelona
p584
aVbarclayscom
p585
aVbare
p586
aVbarg
p587
aVbarn
p588
aVbarnet
p589
aVbarnett
p590
aVbarney
p591
aVbaro
p592
aVbaronet
p593
aVbarr
p594
aVbarrack
p595
aVbarrag
p596
aVbarri
p597
aVbarricad
p598
aVbarrier
p599
aVbarrist
p600
aVbarroso
p601
aVbaryon
p602
aVbase
p603
aVbasebal
p604
aVbasel
p605
aVbaselin
p606
aVbash
p607
aVbasi
p608
aVbasic
p609
aVbasil
p610
aVbass
p611
aVbastardis
p612
aVbastion
p613
aVbat
p614
aVbatavia
p615
aVbatch
p616
aVbatch-cook
p617
aVbati
p618
aVbatsman
p619
aVbatteri
p620
aVbattl
p621
aVbaxendal
p622
aVbay
p623
aVbayram
p624
aVbba
p625
aVbbc
p626
aVbbccouksport
p627
aVbbcs
p628
aVbbq
p629
aVbckman
p630
aVbcm
p631
aVbeach
p632
aVbeaconsfield
p633
aVbeam
p634
aVbean
p635
aVbear
p636
aVbeard
p637
aVbeat
p638
aVbeaten
p639
aVbeatl
p640
aVbeatric
p641
aVbeauti
p642
aVbecam
p643
aVbeckham
p644
aVbecki
p645
aVbecom
p646
aVbed
p647
aVbedroom
p648
aVbedsid
p649
aVbee
p650
aVbeef
p651
aVbeekeep
p652
aVbeep
p653
aVbeer
p654
aVbefriend
p655
aVbegan
p656
aVbegin
p657
aVbegrudg
p658
aVbegun
p659
aVbehalf
p660
aVbehav
p661
aVbehaviour
p662
aVbehind
p663
aVbehold
p664
aVbeholden
p665
aVbeij
p666
aVbekel
p667
aVbelarus
p668
aVbelfast
p669
aVbelgian
p670
aVbeli
p671
aVbelief
p672
aVbeliev
p673
aVbelittl
p674
aVbelkin
p675
aVbell
p676
aVbellweth
p677
aVbelong
p678
aVbelov
p679
aVbelt
p680
aVben
p681
aVbench
p682
aVbenchmark
p683
aVbeneath
p684
aVbenefici
p685
aVbenefit
p686
aVbenevol
p687
aVbentek
p688
aVbercow
p689
aVberlin
p690
aVbernard
p691
aVbernhard
p692
aVberni
p693
aVberth
p694
aVbertrand
p695
aVbesid
p696
aVbest
p697
aVbest-known
p698
aVbest-perform
p699
aVbest-plac
p700
aVbest-sel
p701
aVbet
p702
aVbetter
p703
aVbetter-known
p704
aVbetter-off
p705
aVbeyond
p706
aVbfi
p707
aVbharara
p708
aVbianca
p709
aS'bias'
p710
aVbib
p711
aVbibl
p712
aVbiblic
p713
aVbicycl
p714
aVbid
p715
aVbiennial
p716
aVbiffi
p717
aVbig
p718
aVbig-rac
p719
aVbig-screen
p720
aVbig-spend
p721
aVbigg
p722
aVbigger
p723
aVbiggest
p724
aVbiggest-ev
p725
aVbike
p726
aVbilater
p727
aVbilel
p728
aVbill
p729
aVbillboard
p730
aVbilli
p731
aVbillion
p732
aVbillionair
p733
aVbin
p734
aVbind
p735
aVbing
p736
aVbingley
p737
aVbio-organ
p738
aVbiodegrad
p739
aVbiodivers
p740
aVbioga
p741
aVbiographi
p742
aVbiolog
p743
aVbiologist
p744
aVbiomass
p745
aVbiopsi
p746
aVbioreactor
p747
aVbipolar
p748
aVbirchal
p749
aVbird
p750
aVbird-bas
p751
aVbirdi
p752
aVbirdwatch
p753
aVbirmingham
p754
aVbiro
p755
aVbirth
p756
aVbirthday
p757
aVbirthplac
p758
aVbirthrat
p759
aVbishop
p760
aVbit
p761
aVbite
p762
aVbitter
p763
aVbittersweet
p764
aVbizarr
p765
aVbjorn
p766
aVblack
p767
aVblackberri
p768
aVblackburn
p769
aVblacktip
p770
aVbladder
p771
aVblade
p772
aVblair
p773
aVblairbrown
p774
aVblame
p775
aVblanchard
p776
aVblank
p777
aVblanket
p778
aVblasio
p779
aVblatant
p780
aVblazer
p781
aVblear
p782
aVbleed
p783
aVblend
p784
aVblew
p785
aVblick
p786
aVblight
p787
aVblind
p788
aVblink
p789
aVblixt
p790
aVblock
p791
aVblockag
p792
aVblockbust
p793
aVblog
p794
aVblogger
p795
aVblond
p796
aVblood
p797
aVblood-born
p798
aVbloodi
p799
aVbloomberg
p800
aVblossom
p801
aVblow
p802
aVblu
p803
aVblubber
p804
aVblue
p805
aVblue-lights-flash
p806
aVbluecoat
p807
aVbluefin
p808
aVbluefin-
p809
aVblueprint
p810
aVblueton
p811
aVblur
p812
aVblush
p813
aVbmc
p814
aVbmw
p815
aVbn
p816
aVbn-worth
p817
aVboard
p818
aVboardroom
p819
aVboat
p820
aVbob
p821
aVbodi
p822
aVbodleian
p823
aVbodycar
p824
aVboe
p825
aVboffi
p826
aVbog
p827
aVbogey
p828
aVbogon
p829
aVbogus
p830
aVbohem
p831
aVbohemia
p832
aVboil
p833
aVboiler
p834
aVbokova
p835
aVbolasi
p836
aVbold
p837
aVbolster
p838
aVbolt
p839
aVbomb
p840
aVbombard
p841
aVbond
p842
aVbondhold
p843
aVbone
p844
aVbonham
p845
aVbonhomi
p846
aVboni
p847
aVbonin
p848
aVbonker
p849
aVbook
p850
aVbookstor
p851
aVboom
p852
aVboomtown
p853
aVboon
p854
aVboonen
p855
aVboost
p856
aVboot
p857
aVbordeaux
p858
aVborder
p859
aVbore
p860
aVbori
p861
aVborn
p862
aVboro
p863
aVborrow
p864
aVborschberg
p865
aVborthwick
p866
aVboss
p867
aVboss-measur
p868
aVboston
p869
aVbotan
p870
aVbottl
p871
aVbottom
p872
aVbough
p873
aVbought
p874
aVbounc
p875
aVbound
p876
aVboundari
p877
aVbourda
p878
aVbournemouth
p879
aVbow
p880
aVbowen
p881
aVbox
p882
aVbox-to-box
p883
aVboxal
p884
aVboxer
p885
aVboy
p886
aVboyl
p887
aVbpi
p888
aVbrad
p889
aVbradford
p890
aVbradley
p891
aVbrailsford
p892
aVbrain
p893
aVbranch
p894
aVbrand
p895
aVbrandi
p896
aVbrandon
p897
aVbrash
p898
aVbrass
p899
aVbrave
p900
aVbraveri
p901
aVbrazil
p902
aVbrazilian
p903
aVbreach
p904
aVbread
p905
aVbreadth
p906
aVbreak
p907
aVbreakaway
p908
aVbreakdown
p909
aVbreakfast
p910
aVbreakthrough
p911
aVbreanna
p912
aVbreaststrok
p913
aVbreath
p914
aVbreathtak
p915
aVbred
p916
aVbreed
p917
aVbreeder
p918
aVbreez
p919
aVbrendan
p920
aVbrewin
p921
aVbrian
p922
aVbrick
p923
aVbridg
p924
aVbridget
p925
aVbridgewat
p926
aVbrief
p927
aVbriefer
p928
aVbriefli
p929
aVbrigad
p930
aVbrigg
p931
aVbright
p932
aVbrighter
p933
aVbrightest
p934
aVbrilliant
p935
aVbring
p936
aVbristol
p937
aVbritain
p938
aVbritannia
p939
aVbritish
p940
aVbritney
p941
aVbriton
p942
aVbritpop
p943
aVbroad
p944
aVbroadcast
p945
aVbroaden
p946
aVbroader
p947
aVbroadest
p948
aVbroke
p949
aVbroken
p950
aVbrom
p951
aVbromsgrov
p952
aVbronz
p953
aVbrood
p954
aVbrook
p955
aVbroon
p956
aVbrosnan
p957
aVbrother
p958
aVbrought
p959
aVbroughti
p960
aVbrown
p961
aVbrows
p962
aVbrowser
p963
aVbruce
p964
aVbruis
p965
aVbrunei
p966
aVbrunel
p967
aVbrush
p968
aVbrussel
p969
aVbrutal
p970
aVbst
p971
aVbt
p972
aVbubba
p973
aVbubbl
p974
aVbuckingham
p975
aVbuckinghamshir
p976
aVbuckl
p977
aVbuckland
p978
aVbud
p979
aVbudapest
p980
aVbudget
p981
aVbueno
p982
aVbuffer
p983
aVbuffini
p984
aVbug
p985
aVbugg
p986
aVbuild
p987
aVbuild-up
p988
aVbuilt
p989
aVbulg
p990
aVbulgaria
p991
aVbulgarian
p992
aVbulimia
p993
aVbulk
p994
aVbull
p995
aVbulldoz
p996
aVbullet
p997
aVbulli
p998
aVbullish
p999
aVbump
p1000
aVbunch
p1001
aVbungler
p1002
aVbunk
p1003
aVbunker
p1004
aVburbidg
p1005
aVburden
p1006
aVbureau
p1007
aVbureaus
p1008
aVburger
p1009
aVburgo
p1010
aVburi
p1011
aVburial
p1012
aVburk
p1013
aVburkil
p1014
aVburkitt
p1015
aVburma
p1016
aVburn
p1017
aVburnley
p1018
aVburnt
p1019
aVburrow
p1020
aVbursari
p1021
aVburst
p1022
aVburundi
p1023
aVburwel
p1024
aVbus
p1025
aVbush
p1026
aVbusi
p1027
aVbusier
p1028
aVbusiness-polit
p1029
aVbusinessman
p1030
aVbustl
p1031
aVbuswel
p1032
aVbutcher
p1033
aVbutler-sloss
p1034
aVbutterfield
p1035
aVbutterfli
p1036
aVbutterworth
p1037
aVbutton
p1038
aVbuy
p1039
aVbuyer
p1040
aVbuzz
p1041
aVbva
p1042
aVby-catch
p1043
aVby-elect
p1044
aVbyaruhanga
p1045
aVbyrn
p1046
aVc
p1047
aVc-band
p1048
aVcaa
p1049
aVcab
p1050
aVcabaret
p1051
aVcabinet
p1052
aVcabl
p1053
aVcabrera
p1054
aVcaddi
p1055
aVcadel
p1056
aVcadmium
p1057
aVcafe
p1058
aVcage
p1059
aVcairn
p1060
aVcaitlin
p1061
aVcake
p1062
aVcakmak
p1063
aVcal
p1064
aVcalam
p1065
aVcalcul
p1066
aVcalderon
p1067
aVcaledonia
p1068
aVcaledonian
p1069
aVcalendar
p1070
aVcalf
p1071
aVcalibr
p1072
aVcalifornia
p1073
aVcalifornia-bas
p1074
aVcalifornian
p1075
aVcall
p1076
aVcallard
p1077
aVcallow
p1078
aVcalm
p1079
aVcalmer
p1080
aVcalori
p1081
aVcalv
p1082
aVcalvari
p1083
aVcalvin
p1084
aVcambodia
p1085
aVcambridg
p1086
aVcambridgeshir
p1087
aVcame
p1088
aVcamera
p1089
aVcameraman
p1090
aVcameron
p1091
aVcamp
p1092
aVcampaign
p1093
aVcampbel
p1094
aVcampus
p1095
aVcan-do
p1096
aVcanada
p1097
aVcanadian
p1098
aVcanal
p1099
aVcancel
p1100
aVcancellara
p1101
aVcancer
p1102
aVcandid
p1103
aVcane
p1104
aVcanin
p1105
aVcanist
p1106
aVcannot
p1107
aVcant
p1108
aVcanteen
p1109
aVcap
p1110
aVcapabl
p1111
aVcapac
p1112
aVcapit
p1113
aVcapita
p1114
aVcapitalis
p1115
aVcapitalist
p1116
aVcappuccino
p1117
aVcaprici
p1118
aVcaptain
p1119
aVcaptur
p1120
aVcar
p1121
aVcarbohydr
p1122
aVcarbon
p1123
aVcarbon-captur
p1124
aVcarbonis
p1125
aVcard
p1126
aVcardersu
p1127
aVcardiff
p1128
aVcardiologist
p1129
aVcare
p1130
aVcareer
p1131
aVcarer
p1132
aVcarey
p1133
aVcaribbean
p1134
aVcarl
p1135
aVcarlisl
p1136
aVcarlo
p1137
aVcarlton
p1138
aVcarmak
p1139
aVcarmichael
p1140
aVcarney
p1141
aVcarnivor
p1142
aVcarol
p1143
aVcarolin
p1144
aVcarolina
p1145
aVcarpet
p1146
aVcarri
p1147
aVcarriag
p1148
aVcarrier
p1149
aVcarswel
p1150
aVcart
p1151
aVcarter
p1152
aVcartilag
p1153
aVcartoon
p1154
aVcartoonist
p1155
aVcarv
p1156
aVcarwyn
p1157
aVcas
p1158
aVcase
p1159
aVcash
p1160
aVcasper
p1161
aVcassandra
p1162
aVcassett
p1163
aVcast
p1164
aVcastl
p1165
aVcastleford
p1166
aVcastr
p1167
aVcataclysm
p1168
aVcatalan
p1169
aVcatalyst
p1170
aVcatastroph
p1171
aVcatch
p1172
aVcatch-and-kil
p1173
aVcatchphras
p1174
aVcategor
p1175
aVcategori
p1176
aVcater
p1177
aVcathedr
p1178
aVcatherin
p1179
aVcathol
p1180
aVcattl
p1181
aVcaught
p1182
aVcaus
p1183
aVcauseallow
p1184
aVcaution
p1185
aVcautious
p1186
aVcaveat
p1187
aVcavern
p1188
aVcaviti
p1189
aVcbe
p1190
aVcbi
p1191
aVcbs
p1192
aVceas
p1193
aVceleb
p1194
aVcelebr
p1195
aVcelebratori
p1196
aVcelesti
p1197
aVcelia
p1198
aVcell
p1199
aVcellan-jon
p1200
aVcemeteri
p1201
aVcensorship
p1202
aVcensus
p1203
aVcent
p1204
aVcentenari
p1205
aVcenter
p1206
aVcentr
p1207
aVcentral
p1208
aVcentre-back
p1209
aVcentre-ground
p1210
aVcentre-right
p1211
aVcentrica
p1212
aVcenturi
p1213
aVceo
p1214
aVceremoni
p1215
aVcertain
p1216
aVcertainti
p1217
aVcertif
p1218
aVcertifi
p1219
aVcervic
p1220
aVchad
p1221
aVchaebol
p1222
aVchain
p1223
aVchair
p1224
aVchairman
p1225
aVchakrabarti
p1226
aVchalleng
p1227
aVchalobah
p1228
aVchamakh
p1229
aVchampagn
p1230
aVchampion
p1231
aVchampionship
p1232
aVchanc
p1233
aVchancellor
p1234
aVchang
p1235
aVchange-rel
p1236
aVchannel
p1237
aVchant
p1238
aVchap
p1239
aVchapter
p1240
aVchar
p1241
aVcharact
p1242
aVcharacteris
p1243
aVcharacterist
p1244
aVcharcoal
p1245
aVcharcoal-co
p1246
aVcharg
p1247
aVcharisma
p1248
aVchariti
p1249
aVcharl
p1250
aVcharli
p1251
aVcharlott
p1252
aVcharlton
p1253
aVcharm
p1254
aVcharnvit
p1255
aVchart
p1256
aVchart-top
p1257
aVcharter
p1258
aVchartier
p1259
aVchase
p1260
aVchaser
p1261
aVchastiti
p1262
aVchat
p1263
aVchatter
p1264
aVchatterley
p1265
aVcheap
p1266
aVcheaper
p1267
aVcheapest
p1268
aVcheck
p1269
aVcheddington
p1270
aVcheer
p1271
aVchees
p1272
aVchef
p1273
aVchelsea
p1274
aVchelseaeverton
p1275
aVcheltenham
p1276
aVchemic
p1277
aVchemistri
p1278
aVchemotherapi
p1279
aVchen
p1280
aVchequ
p1281
aVchequer
p1282
aVcherri
p1283
aVcheryl
p1284
aVcheshir
p1285
aVchest
p1286
aVchicago
p1287
aVchick
p1288
aVchick-pea
p1289
aVchicken
p1290
aVchickpea
p1291
aVchief
p1292
aVchild
p1293
aVchild-l
p1294
aVchildbirth
p1295
aVchildcar
p1296
aVchildhood
p1297
aVchildmind
p1298
aVchildren
p1299
aVchilean
p1300
aVchill
p1301
aVchiltern
p1302
aVchime
p1303
aVchin
p1304
aVchina
p1305
aVchines
p1306
aVchinese-singaporean
p1307
aVchinese-speak
p1308
aVching-fu
p1309
aVchingford
p1310
aVchip
p1311
aVchivenor
p1312
aVchm
p1313
aVchocol
p1314
aVchoic
p1315
aVchoir
p1316
aVchoked-off
p1317
aVchomp
p1318
aVchoos
p1319
aVchoosi
p1320
aVchop
p1321
aVchose
p1322
aVchosen
p1323
aVchou
p1324
aVchoudhri
p1325
aVchow
p1326
aVchris
p1327
aVchrist
p1328
aVchristian
p1329
aVchristin
p1330
aVchristina
p1331
aVchristma
p1332
aVchristoph
p1333
aVchrome-trim
p1334
aVchromosom
p1335
aVchronic
p1336
aVchuck
p1337
aVchukwumerij
p1338
aVchun-hsien
p1339
aVchunk
p1340
aVchurch
p1341
aVciaran
p1342
aVcierzniak
p1343
aVcieslak
p1344
aVciftci
p1345
aVcigarett
p1346
aVcinderella
p1347
aVcindi
p1348
aVcinema
p1349
aVcinematograph
p1350
aVcinematographi
p1351
aVcircl
p1352
aVcircul
p1353
aVcircular
p1354
aVcircumst
p1355
aVcite
p1356
aVciti
p1357
aVcitigroup
p1358
aVcitizen
p1359
aVcityc
p1360
aVcityscop
p1361
aVcivil
p1362
aVclacton
p1363
aVclaim
p1364
aVclaimant
p1365
aVclam
p1366
aVclamp
p1367
aVclan-bas
p1368
aVclanci
p1369
aVclare
p1370
aVclaret
p1371
aVclark
p1372
aVclass
p1373
aVclassic
p1374
aVclassicist
p1375
aVclassifi
p1376
aVclassroom
p1377
aVclaud
p1378
aVclaudia
p1379
aVclaus
p1380
aVclayton
p1381
aVclean
p1382
aVcleaner
p1383
aVcleanest
p1384
aVclear
p1385
aVclearer
p1386
aVclegg
p1387
aVclement
p1388
aVclever
p1389
aVcleverest
p1390
aVclichi
p1391
aVclick
p1392
aVclient
p1393
aVcliff
p1394
aVclifton
p1395
aVclimat
p1396
aVclimax
p1397
aVclimb
p1398
aVclinch
p1399
aVclinic
p1400
aVclip
p1401
aVclock
p1402
aVclose
p1403
aVclose-knit
p1404
aVcloser
p1405
aVclosest
p1406
aVclosur
p1407
aVcloth
p1408
aVcloud
p1409
aVcloudfar
p1410
aVcloudi
p1411
aVclough
p1412
aVclout
p1413
aVclub
p1414
aVclubhous
p1415
aVclue
p1416
aVclutch
p1417
aVclwyd
p1418
aVclyde
p1419
aVclyro
p1420
aVcm
p1421
aVcml
p1422
aVco
p1423
aVco-author
p1424
aVco-chief
p1425
aVco-editor
p1426
aVco-found
p1427
aVco-op
p1428
aVco-oper
p1429
aVco-ordin
p1430
aVco-present
p1431
aVco-star
p1432
aVco-writ
p1433
aVco-wrot
p1434
aVcoach
p1435
aVcoal
p1436
aVcoal-export
p1437
aVcoal-fir
p1438
aVcoal-min
p1439
aVcoalit
p1440
aVcoast
p1441
aVcoastal
p1442
aVcobbleston
p1443
aVcocain
p1444
aVcochlear
p1445
aVcock-up
p1446
aVcocker
p1447
aVcockeril
p1448
aVcockpit
p1449
aVcoconut
p1450
aVcode
p1451
aVcodenomicon
p1452
aVcoder
p1453
aVcoderdojo
p1454
aVcoen
p1455
aVcoercion
p1456
aVcoffe
p1457
aVcoffeestal
p1458
aVcognit
p1459
aVcohabit
p1460
aVcohen
p1461
aVcoher
p1462
aVcohort
p1463
aVcoin
p1464
aVcoincid
p1465
aVcolbert
p1466
aVcolchest
p1467
aVcold
p1468
aVcolin
p1469
aVcollabor
p1470
aVcollaps
p1471
aVcollar
p1472
aVcollat
p1473
aVcollater
p1474
aVcolleagu
p1475
aVcollect
p1476
aVcolleg
p1477
aVcollett
p1478
aVcollid
p1479
aVcollis
p1480
aVcollud
p1481
aVcollus
p1482
aVcolombia
p1483
aVcolonel
p1484
aVcoloni
p1485
aVcoloss
p1486
aVcolour
p1487
aVcolourist
p1488
aVcoltran
p1489
aVcolumbia
p1490
aVcolumn
p1491
aVcolumnist
p1492
aVcombat
p1493
aVcombin
p1494
aVcome
p1495
aVcomeback
p1496
aVcomedi
p1497
aVcomedian
p1498
aVcomfort
p1499
aVcomic
p1500
aVcommand
p1501
aVcommando
p1502
aVcomment
p1503
aVcommentari
p1504
aVcommerci
p1505
aVcommercialis
p1506
aVcommercially-avail
p1507
aVcommiss
p1508
aVcommission
p1509
aVcommit
p1510
aVcommitte
p1511
aVcommoditis
p1512
aVcommon
p1513
aVcommonest
p1514
aVcommonplac
p1515
aVcommonwealth
p1516
aVcommunic
p1517
aVcommunism
p1518
aVcommunist
p1519
aVcommuniti
p1520
aVcommunity-own
p1521
aVcommunity-wid
p1522
aVcommut
p1523
aVcompact
p1524
aVcompani
p1525
aVcompanion
p1526
aVcompar
p1527
aVcomparison
p1528
aVcompartmentalis
p1529
aVcompass
p1530
aVcompatriot
p1531
aVcompel
p1532
aVcompens
p1533
aVcompet
p1534
aVcompetit
p1535
aVcompetitor
p1536
aVcompil
p1537
aVcomplac
p1538
aVcomplain
p1539
aVcomplaint
p1540
aVcomplement
p1541
aVcomplementari
p1542
aVcomplet
p1543
aVcomplex
p1544
aVcomplexion
p1545
aVcompli
p1546
aVcomplic
p1547
aVcompliment
p1548
aVcompon
p1549
aVcompos
p1550
aVcomposit
p1551
aVcomposur
p1552
aVcomprehens
p1553
aVcompris
p1554
aVcompromis
p1555
aVcompuls
p1556
aVcompulsori
p1557
aVcomput
p1558
aVcomr
p1559
aVcon
p1560
aVconakri
p1561
aVconced
p1562
aVconceiv
p1563
aVconcentr
p1564
aVconcept
p1565
aVconcern
p1566
aVconcert
p1567
aVconcess
p1568
aVconclud
p1569
aVconclus
p1570
aVconcret
p1571
aVcondemn
p1572
aVcondit
p1573
aVcondon
p1574
aVcondor
p1575
aVconduc
p1576
aVconduct
p1577
aVcone
p1578
aVconfeder
p1579
aVconfer
p1580
aVconferenc
p1581
aVconfess
p1582
aVconfid
p1583
aVconfidenti
p1584
aVconfirm
p1585
aVconflict
p1586
aVconform
p1587
aVconfront
p1588
aVconfus
p1589
aVconglomer
p1590
aVcongo
p1591
aVcongreg
p1592
aVcongress
p1593
aVconjunct
p1594
aVconnect
p1595
aVconnecticut
p1596
aVconnelli
p1597
aVconor
p1598
aVconquer
p1599
aVconscienc
p1600
aVconscious
p1601
aVconsecut
p1602
aVconsensu
p1603
aVconsensus
p1604
aVconsent
p1605
aVconsequ
p1606
aVconserv
p1607
aVconsid
p1608
aVconsider
p1609
aVconsign
p1610
aVconsist
p1611
aVconsitut
p1612
aVconsolid
p1613
aVconspicu
p1614
aVconspir
p1615
aVconspiraci
p1616
aVconstanc
p1617
aVconstant
p1618
aVconstitu
p1619
aVconstitut
p1620
aVconstrain
p1621
aVconstraint
p1622
aVconstruct
p1623
aVconsult
p1624
aVconsum
p1625
aVconsumer
p1626
aVconsumpt
p1627
aVcontact
p1628
aVcontagi
p1629
aVcontain
p1630
aVcontamin
p1631
aVcontemporari
p1632
aVcontend
p1633
aVcontent
p1634
aVcontenti
p1635
aVcontest
p1636
aVcontext
p1637
aVcontin
p1638
aVcontinent
p1639
aVcontinu
p1640
aVcontracept
p1641
aVcontract
p1642
aVcontractor
p1643
aVcontradict
p1644
aVcontrast
p1645
aVcontribut
p1646
aVcontrol
p1647
aVcontroversi
p1648
aVconvent
p1649
aVconvers
p1650
aVconvert
p1651
aVconvey
p1652
aVconvict
p1653
aVconvinc
p1654
aVcook
p1655
aVcookeri
p1656
aVcool
p1657
aVcoolest
p1658
aVcoomb
p1659
aVcooper
p1660
aVcoordin
p1661
aVcopa
p1662
aVcopacabana
p1663
aVcope
p1664
aVcopeland
p1665
aVcopernicus
p1666
aVcopi
p1667
aVcopyright
p1668
aVcoral
p1669
aVcore
p1670
aVcork
p1671
aVcorn
p1672
aVcornel
p1673
aVcorner
p1674
aVcornerston
p1675
aVcornet
p1676
aVcorollari
p1677
aVcoron
p1678
aVcorpor
p1679
aVcorrect
p1680
aVcorrel
p1681
aVcorrespond
p1682
aVcorros
p1683
aVcorrupt
p1684
aVcosmic
p1685
aVcosmolog
p1686
aVcosmologist
p1687
aVcosmopolitan
p1688
aS'cosmos'
p1689
aVcost
p1690
aVcost-of-liv
p1691
aVcotteslo
p1692
aVcotton
p1693
aVcould
p1694
aVcouldnt
p1695
aVcouncil
p1696
aVcounsel
p1697
aVcount
p1698
aVcountdown
p1699
aVcounter
p1700
aVcounter-attack
p1701
aVcounterpart
p1702
aVcounterproduct
p1703
aVcounti
p1704
aVcountless
p1705
aVcountri
p1706
aVcountryman
p1707
aVcountrysid
p1708
aVcoup
p1709
aVcoupl
p1710
aVcourag
p1711
aVcours
p1712
aVcourse-record
p1713
aVcoursera
p1714
aVcourt
p1715
aVcourtney
p1716
aVcousin
p1717
aVcoutinho
p1718
aVcoventri
p1719
aVcover
p1720
aVcoverag
p1721
aVcovet
p1722
aVcowboy
p1723
aVcppr
p1724
aVcps
p1725
aVcrabbi
p1726
aVcrack
p1727
aVcrackdown
p1728
aVcracker
p1729
aVcraft
p1730
aVcraig
p1731
aVcramp
p1732
aVcrane
p1733
aVcranston
p1734
aVcrash
p1735
aVcrave
p1736
aVcrawford
p1737
aVcrawl
p1738
aVcrazi
p1739
aVcreak
p1740
aVcream
p1741
aVcreat
p1742
aVcreation
p1743
aVcreativ
p1744
aVcreator
p1745
aVcredibl
p1746
aVcredit
p1747
aVcreditor
p1748
aVcreditworthi
p1749
aVcreek
p1750
aVcreep
p1751
aVcrenat
p1752
aVcrenshaw
p1753
aVcrestfallen
p1754
aVcrevic
p1755
aVcrew
p1756
aVcri
p1757
aVcrib
p1758
aVcricket
p1759
aVcridland
p1760
aVcrime
p1761
aVcrimea
p1762
aVcrimea-bas
p1763
aVcrimean
p1764
aVcrimin
p1765
aVcriminalis
p1766
aVcrisi
p1767
aVcrisp
p1768
aVcriss-cross
p1769
aVcriteria
p1770
aVcritic
p1771
aVcriticis
p1772
aVcrochet
p1773
aVcrocodil
p1774
aVcrosland
p1775
aVcross
p1776
aVcross-bord
p1777
aVcross-calibr
p1778
aVcross-curr
p1779
aVcross-field
p1780
aVcross-govern
p1781
aVcross-parti
p1782
aVcrossbar
p1783
aVcrouch
p1784
aVcrow
p1785
aVcrowd
p1786
aVcrowdcub
p1787
aVcrowdfund
p1788
aVcrown
p1789
aVcrucial
p1790
aVcrucibl
p1791
aVcruelti
p1792
aVcrunch
p1793
aVcrush
p1794
aVcrust
p1795
aVcrutchlow
p1796
aVcryptograph
p1797
aVcrystal
p1798
aVcrystallis
p1799
aVcsiro
p1800
aVcube
p1801
aVcubic
p1802
aVcull
p1803
aVculmin
p1804
aVcultur
p1805
aVcum
p1806
aVcumbria
p1807
aVcumul
p1808
aVcup
p1809
aVcup-win
p1810
aVcupboard
p1811
aVcupola
p1812
aVcure
p1813
aVcurios
p1814
aVcurran
p1815
aVcurrenc
p1816
aVcurrent
p1817
aVcurriculum
p1818
aVcurs
p1819
aVcursori
p1820
aVcurtail
p1821
aVcurti
p1822
aVcurv
p1823
aVcustom
p1824
aVcustomis
p1825
aVcut
p1826
aVcutaway
p1827
aVcutler
p1828
aVcutting-edg
p1829
aVcyber-attack
p1830
aVcyber-cop
p1831
aVcyber-espionag
p1832
aVcyber-secur
p1833
aVcyber-threat
p1834
aVcybercrimin
p1835
aVcyberspi
p1836
aVcycl
p1837
aVcyclist
p1838
aVcyclon
p1839
aVcymru
p1840
aVcynic
p1841
aVczech
p1842
aVczerski
p1843
aVd
p1844
aVd-scaffold
p1845
aVdad
p1846
aVdaddi
p1847
aVdaili
p1848
aVdakota
p1849
aVdale
p1850
aVdali
p1851
aVdamag
p1852
aVdame
p1853
aVdamien
p1854
aVdamn
p1855
aVdamon
p1856
aVdanc
p1857
aVdanger
p1858
aVdani
p1859
aVdaniel
p1860
aVdanilo
p1861
aVdanni
p1862
aVdara
p1863
aVdark
p1864
aVdarl
p1865
aVdarlia
p1866
aVdarmstadt
p1867
aVdarren
p1868
aVdart
p1869
aVdaryl
p1870
aVdash
p1871
aVdata
p1872
aVdata-relay
p1873
aVdatabas
p1874
aVdatacheck
p1875
aVdataset
p1876
aVdate
p1877
aVdaughter
p1878
aVdaunt
p1879
aVdave
p1880
aVdavey
p1881
aVdavi
p1882
aVdavid
p1883
aVdavington
p1884
aVdaw
p1885
aVdawesvill
p1886
aVdawn
p1887
aVdawson
p1888
aVday
p1889
aVday-long
p1890
aVday-to-day
p1891
aVdaytim
p1892
aVdazzl
p1893
aVdc
p1894
aVdcms
p1895
aVde
p1896
aVde-orbit
p1897
aVdead
p1898
aVdeadlin
p1899
aVdeadlock
p1900
aVdeaf
p1901
aVdeakin
p1902
aVdeal
p1903
aVdealt
p1904
aVdean
p1905
aVdeath
p1906
aVdebat
p1907
aVdebbi
p1908
aVdebilit
p1909
aVdeborah
p1910
aVdebri
p1911
aVdebt
p1912
aVdebut
p1913
aVdecad
p1914
aVdecarbonis
p1915
aVdecarteret
p1916
aVdecay
p1917
aVdecc
p1918
aVdeceas
p1919
aVdeceler
p1920
aVdecemb
p1921
aVdecent
p1922
aVdecentralis
p1923
aVdecid
p1924
aVdecis
p1925
aVdeclar
p1926
aVdeclin
p1927
aVdecommiss
p1928
aVdecoupl
p1929
aVdecreas
p1930
aVdecrypt
p1931
aVdedic
p1932
aVdeed
p1933
aVdeem
p1934
aVdeep
p1935
aVdeeper
p1936
aVdeepli
p1937
aVdeeply-held
p1938
aVdeer
p1939
aVdeezer
p1940
aVdefault
p1941
aVdefeat
p1942
aVdefect
p1943
aVdefenc
p1944
aVdefend
p1945
aVdefens
p1946
aVdefi
p1947
aVdeficit
p1948
aVdefin
p1949
aVdefinit
p1950
aVdeflat
p1951
aVdeflect
p1952
aVdeforest
p1953
aVdefra
p1954
aVdefunct
p1955
aVdegal
p1956
aVdegre
p1957
aVdel
p1958
aVdelaney
p1959
aVdelay
p1960
aVdelet
p1961
aVdelhi
p1962
aVdeliber
p1963
aVdelicaci
p1964
aVdelight
p1965
aVdelisi
p1966
aVdeliv
p1967
aVdeliveri
p1968
aVdell
p1969
aVdeloitt
p1970
aVdelph
p1971
aVdem
p1972
aVdemand
p1973
aVdemaret
p1974
aVdementia
p1975
aVdemich
p1976
aVdemis
p1977
aVdemocraci
p1978
aVdemocrat
p1979
aVdemograph
p1980
aVdemolish
p1981
aVdemolit
p1982
aVdemon
p1983
aVdemonstr
p1984
aVdench
p1985
aVdeni
p1986
aVdenmark
p1987
aVdenni
p1988
aVdenomin
p1989
aVdens
p1990
aVdent
p1991
aVdenud
p1992
aVdepart
p1993
aVdepartur
p1994
aVdepend
p1995
aVdepict
p1996
aVdeplet
p1997
aVdeploy
p1998
aVdeposit
p1999
aVdepositori
p2000
aVdepress
p2001
aVdeprioritis
p2002
aVdepriv
p2003
aVdeptford
p2004
aVdepth
p2005
aVdeput
p2006
aVdeputi
p2007
aVderang
p2008
aVderbi
p2009
aVderbyshir
p2010
aVderid
p2011
aVdesai
p2012
aVdescend
p2013
aVdescrib
p2014
aVdescript
p2015
aVdeserv
p2016
aVdesign
p2017
aVdesir
p2018
aVdesisa
p2019
aVdesist
p2020
aVdesk
p2021
aVdesktop
p2022
aVdesper
p2023
aVdespit
p2024
aVdestin
p2025
aVdestroy
p2026
aVdestruct
p2027
aVdetail
p2028
aVdetect
p2029
aVdetector
p2030
aVdetent
p2031
aVdeter
p2032
aVdeterior
p2033
aVdetermin
p2034
aVdeterr
p2035
aVdeton
p2036
aVdevalu
p2037
aVdevast
p2038
aVdevelop
p2039
aVdevelopment
p2040
aVdevic
p2041
aVdevis
p2042
aVdevolut
p2043
aVdevolv
p2044
aVdevon
p2045
aVdevot
p2046
aVdevote
p2047
aVdexter
p2048
aVdextros
p2049
aVdey
p2050
aVdfe
p2051
aVdhabi
p2052
aVdiabet
p2053
aVdiageo
p2054
aVdiagnos
p2055
aVdiagnosi
p2056
aVdiagnost
p2057
aVdial-up
p2058
aVdialogu
p2059
aVdiamet
p2060
aVdiari
p2061
aVdiarrhoea
p2062
aVdiaspora
p2063
aVdibaba
p2064
aVdickinson
p2065
aVdictat
p2066
aVdictionari
p2067
aVdidnt
p2068
aVdie
p2069
aVdiego
p2070
aVdiet
p2071
aVdietician
p2072
aVdiffer
p2073
aVdifferenti
p2074
aVdifferentiation-bas
p2075
aVdifficult
p2076
aVdifficulti
p2077
aVdig
p2078
aVdigger
p2079
aVdigit
p2080
aVdignitari
p2081
aVdigniti
p2082
aVdikgacoi
p2083
aVdilemma
p2084
aVdilig
p2085
aVdilut
p2086
aVdimens
p2087
aVdimi
p2088
aVdiminish
p2089
aVdimitrio
p2090
aVdimon
p2091
aVdine
p2092
aVdinner
p2093
aVdinosaur
p2094
aVdiocesan
p2095
aVdiorama
p2096
aVdioxid
p2097
aVdip
p2098
aVdiplomat
p2099
aVdirect
p2100
aVdirector
p2101
aVdirector-gener
p2102
aVdirti
p2103
aVdirtiest
p2104
aVdisabl
p2105
aVdisadvantag
p2106
aVdisagr
p2107
aVdisagre
p2108
aVdisallow
p2109
aVdisappear
p2110
aVdisappoint
p2111
aVdisapprov
p2112
aVdisast
p2113
aVdisastr
p2114
aVdisband
p2115
aVdiscern
p2116
aVdisciplin
p2117
aVdisciplinari
p2118
aVdisclos
p2119
aVdisclosur
p2120
aVdisco
p2121
aVdisconnect
p2122
aVdiscont
p2123
aVdiscount
p2124
aVdiscourag
p2125
aVdiscours
p2126
aVdiscov
p2127
aVdiscoveri
p2128
aVdiscredit
p2129
aVdiscreet
p2130
aVdiscrimin
p2131
aVdiscriminatori
p2132
aVdiscuss
p2133
aVdiseas
p2134
aVdisease-caus
p2135
aVdisengag
p2136
aVdisguis
p2137
aVdisgust
p2138
aVdish
p2139
aVdisillus
p2140
aVdislik
p2141
aVdisloc
p2142
aVdislodg
p2143
aVdismantl
p2144
aVdismiss
p2145
aVdisord
p2146
aVdispar
p2147
aVdisparag
p2148
aVdisplay
p2149
aVdispos
p2150
aVdisput
p2151
aVdisregard
p2152
aVdisrupt
p2153
aVdistanc
p2154
aVdistant
p2155
aVdistil
p2156
aVdistinct
p2157
aVdistinguish
p2158
aVdistract
p2159
aVdistress
p2160
aVdistribut
p2161
aVdistrict
p2162
aVdisturb
p2163
aVditalia
p2164
aVditch
p2165
aVdive
p2166
aVdiver
p2167
aVdiverg
p2168
aVdivers
p2169
aVdiversif
p2170
aVdiversifi
p2171
aVdivert
p2172
aVdivid
p2173
aVdivis
p2174
aVdivorc
p2175
aVdivulg
p2176
aVdixon
p2177
aVdj
p2178
aVdns
p2179
aVdo-it-yourself
p2180
aVdobson
p2181
aVdock
p2182
aVdockyard
p2183
aVdoctor
p2184
aVdocument
p2185
aVdocumentari
p2186
aVdodman
p2187
aVdodo
p2188
aVdodwel
p2189
aVdoesnt
p2190
aVdog
p2191
aVdogwood
p2192
aVdojo
p2193
aVdoksi
p2194
aVdoll
p2195
aVdollar
p2196
aVdollop
p2197
aVdolphin
p2198
aVdomain
p2199
aVdomest
p2200
aVdomin
p2201
aVdominion
p2202
aVdonald
p2203
aVdonaldson
p2204
aVdonat
p2205
aVdone
p2206
aVdonetsk
p2207
aVdonor
p2208
aVdont
p2209
aVdoodl
p2210
aVdoolittl
p2211
aVdoom
p2212
aVdoor
p2213
aVdordain
p2214
aVdori
p2215
aVdormant
p2216
aVdormitori
p2217
aVdorn
p2218
aVdoron
p2219
aVdorothi
p2220
aVdoubl
p2221
aVdouble-doubl
p2222
aVdouble-glaz
p2223
aVdoubt
p2224
aVdoug
p2225
aVdougla
p2226
aVdovizioso
p2227
aVdow
p2228
aVdown
p2229
aVdownlink
p2230
aVdownload
p2231
aVdownplay
p2232
aVdownturn
p2233
aVdowsett
p2234
aVdozen
p2235
aVdp
p2236
aVdpp
p2237
aVdr
p2238
aVdraft
p2239
aVdrag
p2240
aVdraghi
p2241
aVdrake
p2242
aVdrama
p2243
aVdramat
p2244
aVdrastic
p2245
aVdraw
p2246
aVdrawn
p2247
aVdread
p2248
aVdreadlock
p2249
aVdream
p2250
aVdress
p2251
aVdrew
p2252
aVdri
p2253
aVdrink
p2254
aVdrive
p2255
aVdrive-bi
p2256
aVdriven
p2257
aVdriver
p2258
aVdrone
p2259
aVdrool
p2260
aVdrop
p2261
aVdrop-out
p2262
aVdrove
p2263
aVdrown
p2264
aVdrug
p2265
aVdrum
p2266
aVdrumlin
p2267
aVdrummer
p2268
aVdrummey
p2269
aVdrunk
p2270
aVdub
p2271
aVdubai
p2272
aVdublin
p2273
aVducati
p2274
aVdudley
p2275
aVdue
p2276
aVduff
p2277
aVdugong
p2278
aVdugout
p2279
aVduke
p2280
aVdumb
p2281
aVdump
p2282
aVduncan
p2283
aVdunde
p2284
aVdune
p2285
aVdunfermlin
p2286
aVdung
p2287
aVduo
p2288
aVduplic
p2289
aVdurham
p2290
aVdust
p2291
aVdusti
p2292
aVdutchman
p2293
aVduti
p2294
aVdwindl
p2295
aVdyke
p2296
aVdymond
p2297
aVdynam
p2298
aVdysfunct
p2299
aVdyson
p2300
aVe-librari
p2301
aVeager
p2302
aVeagl
p2303
aVear
p2304
aVearl
p2305
aS'earli'
p2306
aVearlier
p2307
aVearliest
p2308
aVearly-year
p2309
aVearmark
p2310
aVearn
p2311
aVearner
p2312
aVearth
p2313
aVearth-observ
p2314
aVearthen
p2315
aVearthquak
p2316
aVearwax
p2317
aVeas
p2318
aVeasi
p2319
aVeasier
p2320
aVeasiest
p2321
aVeasili
p2322
aVeast
p2323
aVeastend
p2324
aVeaster
p2325
aVeastern
p2326
aVeat
p2327
aVeaten
p2328
aVeater
p2329
aVeav
p2330
aVeavesdrop
p2331
aVebay
p2332
aVebola
p2333
aVecb
p2334
aVeccl
p2335
aVechelon
p2336
aVecho
p2337
aVechosound
p2338
aVeckert
p2339
aVeckhardt
p2340
aVeckler
p2341
aVeco-volunt
p2342
aVecolog
p2343
aVecologist
p2344
aVeconom
p2345
aVeconomi
p2346
aVeconomist
p2347
aVecosystem
p2348
aVed
p2349
aVeddi
p2350
aVedg
p2351
aVedict
p2352
aVedinburgh
p2353
aVedinburgh-born
p2354
aVedit
p2355
aVeditor
p2356
aVedmund
p2357
aVeduc
p2358
aVeducationalist
p2359
aVedward
p2360
aVeeri
p2361
aVeffect
p2362
aVefficaci
p2363
aVeffici
p2364
aVeffort
p2365
aVegal
p2366
aVegalitarian
p2367
aVegg
p2368
aVeifl
p2369
aVeight
p2370
aVeighth
p2371
aVeileen
p2372
aVeisenberg
p2373
aVeither
p2374
aVel
p2375
aVelastica
p2376
aVelbow
p2377
aVelder
p2378
aVeldest
p2379
aVelect
p2380
aVelector
p2381
aVelectr
p2382
aVelectrician
p2383
aVelectron
p2384
aVelectronica
p2385
aVeleg
p2386
aVelement
p2387
aVelementari
p2388
aVelev
p2389
aVeleven
p2390
aVeleveur
p2391
aVelimin
p2392
aVelit
p2393
aVeliza
p2394
aVelli
p2395
aVelodi
p2396
aVeloqu
p2397
aVeloran
p2398
aVels
p2399
aVelsewher
p2400
aVelud
p2401
aVelys
p2402
aVemail
p2403
aVembark
p2404
aVembarrass
p2405
aVembassi
p2406
aVembed
p2407
aVembellish
p2408
aVembrac
p2409
aVemerald
p2410
aVemerg
p2411
aVemeritus
p2412
aVemigr
p2413
aVemiss
p2414
aVemissari
p2415
aVemit
p2416
aVemm
p2417
aVemma
p2418
aVemmanuel
p2419
aVemmi
p2420
aVemmy-win
p2421
aVemot
p2422
aVemotionally-charg
p2423
aVempathet
p2424
aVempathi
p2425
aVemphasi
p2426
aVemphasis
p2427
aVemphat
p2428
aVempir
p2429
aVemploy
p2430
aVemploye
p2431
aVempti
p2432
aVemul
p2433
aVen
p2434
aVenabl
p2435
aVenclosur
p2436
aVencount
p2437
aVencourag
p2438
aVencrypt
p2439
aVend
p2440
aVend-of-cours
p2441
aVend-of-lif
p2442
aVendang
p2443
aVendear
p2444
aVendeavour
p2445
aVendem
p2446
aVendless
p2447
aVendur
p2448
aVendura
p2449
aVenemi
p2450
aVenerget
p2451
aVenergi
p2452
aVenergiewend
p2453
aVenergy-effici
p2454
aVenergy-hungri
p2455
aVenergy-rel
p2456
aVenforc
p2457
aVengag
p2458
aVengin
p2459
aVengland
p2460
aVenglish
p2461
aVenglishman
p2462
aVengulf
p2463
aVenhanc
p2464
aVenigmat
p2465
aVenjoy
p2466
aVenlighten
p2467
aVenorm
p2468
aVenough
p2469
aVenriqu
p2470
aVenrol
p2471
aVensur
p2472
aVenter
p2473
aVenterpris
p2474
aVentertain
p2475
aVenthus
p2476
aVenthusiasm
p2477
aVenthusiast
p2478
aVentir
p2479
aVentiti
p2480
aVentitl
p2481
aVentrench
p2482
aVentrepreneur
p2483
aVentrepreneurship
p2484
aVentri
p2485
aVentwin
p2486
aVenvi
p2487
aVenviron
p2488
aVenvironment
p2489
aVenvironmentalist
p2490
aVenvironmentally-friend
p2491
aVenvisag
p2492
aVeo
p2493
aVepic
p2494
aVepicentr
p2495
aVepilepsi
p2496
aVepisod
p2497
aVepitomis
p2498
aVepstein
p2499
aVequal
p2500
aVequalis
p2501
aVequat
p2502
aVequatori
p2503
aVequip
p2504
aVequiti
p2505
aVequival
p2506
aVera
p2507
aVerad
p2508
aVeric
p2509
aVerick
p2510
aVerni
p2511
aVerot
p2512
aVerror
p2513
aVerupt
p2514
aVesa
p2515
aVescal
p2516
aVescap
p2517
aVesdail
p2518
aVesnouf
p2519
aVespargaro
p2520
aVesparron
p2521
aVespeci
p2522
aVessenc
p2523
aVessenti
p2524
aVessex
p2525
aVestablish
p2526
aVestat
p2527
aVesteem
p2528
aVestev
p2529
aVestim
p2530
aVestonia
p2531
aVet
p2532
aVetc
p2533
aVeth
p2534
aVethan
p2535
aVethic
p2536
aVethiopia
p2537
aVethiopian
p2538
aVetihad
p2539
aVetiquett
p2540
aVetonian
p2541
aVeu
p2542
aVeu-india
p2543
aVeuan
p2544
aVeucharist
p2545
aVeuro
p2546
aVeurop
p2547
aVeuropa
p2548
aVeuropean
p2549
aVeurophil
p2550
aVeuroscept
p2551
aVeurozon
p2552
aVeurythm
p2553
aVeurythmicss
p2554
aVeus
p2555
aVevad
p2556
aVevalu
p2557
aVevan
p2558
aVevangel
p2559
aVevangelo
p2560
aVevanss
p2561
aVevapor
p2562
aVevas
p2563
aVevelyn
p2564
aVeven
p2565
aVevent
p2566
aVeventu
p2567
aVever
p2568
aVeveri
p2569
aVeverton
p2570
aVeverybodi
p2571
aVeveryday
p2572
aVeveryon
p2573
aVeveryth
p2574
aVeverywher
p2575
aVevi
p2576
aVevict
p2577
aVevid
p2578
aVevidenti
p2579
aVevok
p2580
aVevolut
p2581
aVevolutionari
p2582
aVevolv
p2583
aVewe
p2584
aVex-european
p2585
aVex-memb
p2586
aVexact
p2587
aVexam
p2588
aVexamin
p2589
aVexampl
p2590
aVexasper
p2591
aVexceed
p2592
aVexcel
p2593
aVexcept
p2594
aVexcess
p2595
aVexchang
p2596
aVexchequ
p2597
aVexcit
p2598
aVexclud
p2599
aVexclus
p2600
aVexcus
p2601
aVexecut
p2602
aVexecution
p2603
aVexecution-
p2604
aVexecution-ori
p2605
aVexempt
p2606
aVexercis
p2607
aVexet
p2608
aVexhaust
p2609
aVexhibit
p2610
aVexhilar
p2611
aVexist
p2612
aVexit
p2613
aVexot
p2614
aVexpand
p2615
aVexpans
p2616
aVexpect
p2617
aVexpens
p2618
aVexperi
p2619
aVexperienc
p2620
aVexpert
p2621
aVexpertis
p2622
aVexplain
p2623
aVexplan
p2624
aVexplicit
p2625
aVexplod
p2626
aVexploit
p2627
aVexplor
p2628
aVexplos
p2629
aVexport
p2630
aVexpos
p2631
aVexposur
p2632
aVexpress
p2633
aVextend
p2634
aVextens
p2635
aVextent
p2636
aVexterior
p2637
aVextern
p2638
aVextinct
p2639
aVextra
p2640
aVextra-tim
p2641
aVextract
p2642
aVextracurricular
p2643
aVextraordinari
p2644
aVextraordinarili
p2645
aVextrem
p2646
aVextremist
p2647
aVeye
p2648
aVeye-contact
p2649
aVeyebal
p2650
aVeyewit
p2651
aVf-secur
p2652
aVfa
p2653
aVfabian
p2654
aVfabius
p2655
aVfabl
p2656
aVfabric
p2657
aVfabul
p2658
aVface
p2659
aVface-to-fac
p2660
aVfacebook
p2661
aVfachi
p2662
aVfacial
p2663
aVfacil
p2664
aVfacilit
p2665
aVfact
p2666
aVfacto
p2667
aVfactor
p2668
aVfactori
p2669
aVfactual
p2670
aVfaculti
p2671
aVfade
p2672
aVfail
p2673
aVfailur
p2674
aVfaint
p2675
aVfair
p2676
aVfairer
p2677
aVfairfax
p2678
aVfairi
p2679
aVfairway
p2680
aVfaith
p2681
aVfake
p2682
aVfalcon
p2683
aVfaldo
p2684
aVfalkirk
p2685
aVfall
p2686
aVfall-off
p2687
aVfallen
p2688
aVfals
p2689
aVfalsifi
p2690
aVfalter
p2691
aVfame
p2692
aVfamili
p2693
aVfamiliar
p2694
aVfamous
p2695
aVfan
p2696
aVfanci
p2697
aVfang
p2698
aVfantasi
p2699
aVfantast
p2700
aVfar
p2701
aVfar-reach
p2702
aVfarag
p2703
aVfarah
p2704
aVfare
p2705
aVfargo
p2706
aVfarm
p2707
aVfarmer
p2708
aVfarmland
p2709
aVfarrelli
p2710
aVfascin
p2711
aVfashion
p2712
aVfast
p2713
aVfast-approach
p2714
aVfast-grow
p2715
aVfaster
p2716
aVfastest
p2717
aVfastest-grow
p2718
aVfastest-ris
p2719
aVfat
p2720
aVfatal
p2721
aVfate
p2722
aVfather
p2723
aVfather-of-two
p2724
aVfathomet
p2725
aVfatigu
p2726
aVfault
p2727
aVfaulti
p2728
aVfavour
p2729
aVfavourit
p2730
aVfbi
p2731
aVfear
p2732
aVfearn
p2733
aVfeasibl
p2734
aVfeast
p2735
aVfeat
p2736
aVfeather
p2737
aVfeatur
p2738
aVfeaturephon
p2739
aVfebruari
p2740
aVfed
p2741
aVfeder
p2742
aVfee
p2743
aVfeed
p2744
aVfeedback
p2745
aVfeel
p2746
aVfeelgood
p2747
aVfeet
p2748
aVfeign
p2749
aVfell
p2750
aVfellow
p2751
aVfellowship
p2752
aVfelt
p2753
aVfema
p2754
aVfemal
p2755
aVfenc
p2756
aVfenella
p2757
aVfenn
p2758
aVfernandinho
p2759
aVferoci
p2760
aVferrari
p2761
aVferri
p2762
aVfertil
p2763
aVfertilis
p2764
aVferus
p2765
aVfestiv
p2766
aVfetch
p2767
aVfever
p2768
aVfewer
p2769
aVfiance
p2770
aVfibr
p2771
aVfibre-opt
p2772
aVfibula
p2773
aVfiction
p2774
aVfidel
p2775
aVfield
p2776
aVfieldwork
p2777
aVfierc
p2778
aVfifa
p2779
aVfifi
p2780
aVfifpro
p2781
aVfifth
p2782
aVfifth-largest
p2783
aVfifti
p2784
aVfight
p2785
aVfightback
p2786
aVfighter
p2787
aVfigur
p2788
aVfiji
p2789
aVfile
p2790
aVfilipino
p2791
aVfill
p2792
aVfilm
p2793
aVfilomeno
p2794
aVfilter
p2795
aVfin
p2796
aVfinal
p2797
aVfinalist
p2798
aVfinanc
p2799
aVfinanci
p2800
aVfind
p2801
aVfine
p2802
aVfine-motor
p2803
aVfine-tun
p2804
aVfinely-tun
p2805
aVfiner
p2806
aVfinger
p2807
aVfingerl
p2808
aVfingerprint
p2809
aVfingerprint-read
p2810
aVfingertip
p2811
aVfinish
p2812
aVfinland
p2813
aVfinn
p2814
aVfinnish
p2815
aVfir
p2816
aVfire
p2817
aVfirebal
p2818
aVfired-up
p2819
aVfirepow
p2820
aVfirewal
p2821
aVfirework
p2822
aVfirm
p2823
aVfirmin
p2824
aVfirst
p2825
aVfirst-class
p2826
aVfirst-half
p2827
aVfirst-in-human
p2828
aVfirst-quart
p2829
aVfirst-tim
p2830
aVfiscal
p2831
aVfish
p2832
aVfisher
p2833
aVfisheri
p2834
aVfit
p2835
aVfitch
p2836
aVfitness-track
p2837
aVfive
p2838
aVfive-
p2839
aVfive-figur
p2840
aVfive-foot
p2841
aVfive-room
p2842
aVfive-week
p2843
aVfive-year
p2844
aVfive-year-old
p2845
aVfix
p2846
aVfixed-r
p2847
aVfixed-term
p2848
aVfixtur
p2849
aVflag
p2850
aVflagship
p2851
aVflail
p2852
aVflammabl
p2853
aVflander
p2854
aVflanders-roubaix
p2855
aVflap
p2856
aVflare
p2857
aVflash
p2858
aVflat
p2859
aVflatteri
p2860
aVflavour
p2861
aVflaw
p2862
aVfled
p2863
aVfleet
p2864
aVfleme
p2865
aVfleuri
p2866
aVflexibl
p2867
aVfli
p2868
aVflick
p2869
aVflickr
p2870
aVflight
p2871
aVflightless
p2872
aVflip
p2873
aVfloat
p2874
aVflock
p2875
aVflood
p2876
aVfloodgat
p2877
aVfloor
p2878
aVflora
p2879
aVflorenc
p2880
aVflorian
p2881
aVflotilla
p2882
aVflounder
p2883
aVflourish
p2884
aVflow
p2885
aVflower
p2886
aVflown
p2887
aVfloyd
p2888
aVflu-lik
p2889
aVfluent
p2890
aVfluid
p2891
aVfluke
p2892
aVflummox
p2893
aVflush
p2894
aVflutter
p2895
aVflux
p2896
aVfly-catch
p2897
aVflynn
p2898
aVfocus
p2899
aVfocuss
p2900
aVfodder
p2901
aVfog
p2902
aVfoi
p2903
aVfold
p2904
aVfold-up
p2905
aVfollow
p2906
aVfollow-up
p2907
aVfomo
p2908
aVfood
p2909
aVfool
p2910
aVfoot
p2911
aVfootag
p2912
aVfootbal
p2913
aVfootstep
p2914
aVforay
p2915
aVforbidden
p2916
aVforc
p2917
aVfore
p2918
aVforecast
p2919
aVforefront
p2920
aVforeign
p2921
aVforemost
p2922
aVforese
p2923
aVforest
p2924
aVforestri
p2925
aVforev
p2926
aVforg
p2927
aVforget
p2928
aVforgotten
p2929
aVforlorn
p2930
aVform
p2931
aVformal
p2932
aVformat
p2933
aVformer
p2934
aVformid
p2935
aVformula
p2936
aVforth
p2937
aVforthcom
p2938
aVfortnight
p2939
aVfortun
p2940
aVforum
p2941
aVforward
p2942
aVfossil
p2943
aVfoster
p2944
aVfought
p2945
aVfoul
p2946
aVfound
p2947
aVfoundat
p2948
aVfounder
p2949
aVfour
p2950
aVfour-day
p2951
aVfour-ov
p2952
aVfour-point
p2953
aVfour-way
p2954
aVfour-year
p2955
aVfour-year-old
p2956
aVfourth
p2957
aVfourth-choic
p2958
aVfox
p2959
aVfraction
p2960
aVfractur
p2961
aVfragil
p2962
aVfrailti
p2963
aVframe
p2964
aVframework
p2965
aVfran
p2966
aVfranc
p2967
aVfrancesca
p2968
aVfranceschi
p2969
aVfranchis
p2970
aVfranchise
p2971
aVfranci
p2972
aVfrancisco
p2973
aVfranco
p2974
aVfrancoi
p2975
aVfrank
p2976
aVfrankcom
p2977
aVfrankfurt
p2978
aVfraser
p2979
aVfraud
p2980
aVfraudster
p2981
aVfraught
p2982
aVfred
p2983
aVfreddi
p2984
aVfree
p2985
aVfree-float
p2986
aVfree-kick
p2987
aVfree-stand
p2988
aVfreedom
p2989
aVfreeli
p2990
aVfreestyl
p2991
aVfreez
p2992
aVfreezer
p2993
aVfreight
p2994
aVfrench
p2995
aVfrenk
p2996
aVfrequenc
p2997
aVfrequent
p2998
aVfresh
p2999
aVfreshen
p3000
aVfresher
p3001
aVfriday
p3002
aVfridg
p3003
aVfriend
p3004
aVfriendship
p3005
aVfrigat
p3006
aVfright
p3007
aVfrighten
p3008
aVfring
p3009
aVfroch
p3010
aVfrock
p3011
aVfront
p3012
aVfrontbench
p3013
aVfrontlin
p3014
aVfrontman
p3015
aVfrontrunn
p3016
aVfrontwoman
p3017
aVfrost
p3018
aVfrown
p3019
aVfrozen
p3020
aVfructos
p3021
aVfruit
p3022
aVfruition
p3023
aVfrustrat
p3024
aVft
p3025
aVfuch
p3026
aVfuel
p3027
aVfuell
p3028
aVfukuda
p3029
aVfulfil
p3030
aVfulham
p3031
aVfull
p3032
aVfull-back
p3033
aVfull-blown
p3034
aVfull-day
p3035
aVfull-length
p3036
aVfull-tim
p3037
aVfull-time-equival
p3038
aVfull-width
p3039
aVfullest
p3040
aVfulli
p3041
aVfully-fledg
p3042
aVfun
p3043
aVfunction
p3044
aVfund
p3045
aVfundament
p3046
aVfundrais
p3047
aVfuner
p3048
aVfunni
p3049
aVfunniest
p3050
aVfurnitur
p3051
aVfurther
p3052
aVfurthermor
p3053
aVfuryk
p3054
aVfuse
p3055
aVfusion
p3056
aVfuss
p3057
aVfutur
p3058
aVfuture-think
p3059
aVfuzzi
p3060
aVg
p3061
aVgabriel
p3062
aVgabriell
p3063
aVgaddafi
p3064
aVgael
p3065
aVgag
p3066
aVgail
p3067
aVgain
p3068
aVgaitskel
p3069
aVgalaxi
p3070
aVgalileo
p3071
aVgall
p3072
aVgallach
p3073
aVgalleri
p3074
aVgallon
p3075
aVgallup
p3076
aVgalway
p3077
aVgambl
p3078
aVgambon
p3079
aVgame
p3080
aVgame-chang
p3081
aVgamer
p3082
aVgamif
p3083
aVgang
p3084
aVgap
p3085
aVgarbag
p3086
aVgarcia
p3087
aVgarden
p3088
aVgardner
p3089
aVgareth
p3090
aVgarfield
p3091
aVgari
p3092
aVgarmin-sharp
p3093
aVgarner
p3094
aVgarrick
p3095
aVgarvey
p3096
aVgas
p3097
aVgase
p3098
aVgate
p3099
aVgather
p3100
aVgaug
p3101
aVgauld
p3102
aVgave
p3103
aVgavin
p3104
aVgay
p3105
aVgaz
p3106
aVgaza
p3107
aVgazprom
p3108
aVgb
p3109
aVgbs
p3110
aVgchq
p3111
aVgcse
p3112
aVgcses
p3113
aVgdp
p3114
aVgear
p3115
aVgebrselassi
p3116
aVgeek
p3117
aVgelana
p3118
aVgeldof
p3119
aVgender
p3120
aVgene
p3121
aVgene-environ
p3122
aVgeneral
p3123
aVgeneralis
p3124
aVgenerat
p3125
aVgeneric
p3126
aVgeneros
p3127
aVgenerous
p3128
aVgenet
p3129
aVgeneva
p3130
aVgeni
p3131
aVgenius
p3132
aVgenom
p3133
aVgenteel
p3134
aVgenuin
p3135
aVgeoff
p3136
aVgeoffrey
p3137
aVgeograph
p3138
aVgeographi
p3139
aVgeolog
p3140
aVgeometr
p3141
aVgeorg
p3142
aVgeorgia
p3143
aVgeraint
p3144
aVgeraldton
p3145
aVgerman
p3146
aVgerman-french
p3147
aVgermani
p3148
aVgerrard
p3149
aVgestur
p3150
aVget
p3151
aVgetaway
p3152
aVgeun-hy
p3153
aVgevorg
p3154
aVghg
p3155
aVghost
p3156
aVgiant
p3157
aVgibben
p3158
aVgift
p3159
aVgift-giv
p3160
aVgile
p3161
aVgill
p3162
aVgillan
p3163
aVgillian
p3164
aVgimmick
p3165
aVgirl
p3166
aVgiro
p3167
aVgithub
p3168
aVgive
p3169
aVgiven
p3170
aVgkm
p3171
aVgla
p3172
aVglacier
p3173
aVglad
p3174
aVglamorgan
p3175
aVglanc
p3176
aVgland
p3177
aVglandular
p3178
aVglasgow
p3179
aVglass
p3180
aVglaze
p3181
aVgleam
p3182
aVglen
p3183
aVgleni
p3184
aVglenn
p3185
aVglimps
p3186
aVglitzi
p3187
aVglobal
p3188
aVglobalis
p3189
aVglobe
p3190
aVglonass
p3191
aVgloucest
p3192
aVgloucestershir
p3193
aVglove
p3194
aVglover
p3195
aVglow
p3196
aVglut
p3197
aVglynn
p3198
aVgmt
p3199
aVgnss
p3200
aVgo
p3201
aVgo-ahead
p3202
aVgoad
p3203
aVgoal
p3204
aVgoal-lin
p3205
aVgoalkeep
p3206
aVgoalsshot
p3207
aVgoat
p3208
aVgod
p3209
aVgodsmejudg
p3210
aVgoe
p3211
aVgoggin
p3212
aVgoggl
p3213
aVgold
p3214
aVgold-med
p3215
aVgolden
p3216
aVgolf
p3217
aVgolfer
p3218
aVgomi
p3219
aVgone
p3220
aVgonet
p3221
aVgoneva
p3222
aVgonzal
p3223
aVgonzalez
p3224
aVgood
p3225
aVgoodby
p3226
aVgoodwil
p3227
aVgoodwin
p3228
aVgooey
p3229
aVgoogl
p3230
aVgordon
p3231
aVgossip
p3232
aVgot
p3233
aVgothic
p3234
aVgoug
p3235
aVgould
p3236
aVgove
p3237
aVgovern
p3238
aVgovernment
p3239
aVgovernor
p3240
aVgps
p3241
aVgrab
p3242
aVgrace
p3243
aVgracious
p3244
aVgrade
p3245
aVgradual
p3246
aVgraduat
p3247
aVgraduate-level
p3248
aVgraem
p3249
aVgraft
p3250
aVgraham
p3251
aVgraichen
p3252
aVgrain
p3253
aVgrammi
p3254
aVgrand
p3255
aVgrandchildren
p3256
aVgranddaught
p3257
aVgrandfath
p3258
aVgrandmoth
p3259
aVgrant
p3260
aVgrape
p3261
aVgrappl
p3262
aVgrass
p3263
aVgrassroot
p3264
aVgratitud
p3265
aVgraviti
p3266
aVgray
p3267
aVgrayl
p3268
aVgreat
p3269
aVgreater
p3270
aVgreatest
p3271
aVgreec
p3272
aVgreek
p3273
aVgreen
p3274
aVgreenberg
p3275
aVgreener
p3276
aVgreenest
p3277
aVgreenhous
p3278
aVgreenland
p3279
aVgreenwood
p3280
aVgreet
p3281
aVgreg
p3282
aVgrew
p3283
aVgrey
p3284
aVgrey-thompson
p3285
aVgrid
p3286
aVgrief
p3287
aVgriev
p3288
aVgrievanc
p3289
aVgriffin
p3290
aVgrill
p3291
aVgrin
p3292
aVgrind
p3293
aVgrip
p3294
aVgripe
p3295
aVgrit
p3296
aVgrocer
p3297
aVgroceri
p3298
aVgroom
p3299
aVgross
p3300
aVgross-motor
p3301
aVgrosser
p3302
aVgrossmith
p3303
aVground
p3304
aVground-bas
p3305
aVground-break
p3306
aVground-shar
p3307
aVgroundbreak
p3308
aVgroundwat
p3309
aVgroup
p3310
aVgrouper
p3311
aVgrove
p3312
aVgrover
p3313
aVgrow
p3314
aVgrower
p3315
aVgrown
p3316
aVgrowth
p3317
aVgrubber
p3318
aVgrubbi
p3319
aVgruell
p3320
aVgruesom
p3321
aVgruff
p3322
aVgrugi
p3323
aVgrunwald
p3324
aVguarante
p3325
aVguard
p3326
aVguardian
p3327
aVgueckedou
p3328
aVguenther
p3329
aVguess
p3330
aVguest
p3331
aVguiana
p3332
aVguianes
p3333
aVguid
p3334
aVguidanc
p3335
aVguidelin
p3336
aVguido
p3337
aVguildhal
p3338
aVguilt
p3339
aVguilt-ridden
p3340
aVguilti
p3341
aVguinea
p3342
aVguitarist
p3343
aVgulp
p3344
aVgun
p3345
aVgunmen
p3346
aVguokr
p3347
aVgut
p3348
aVguy
p3349
aVguzan
p3350
aVgvs
p3351
aVgyi
p3352
aVgym
p3353
aVgyromount
p3354
aVh
p3355
aVhabit
p3356
aVhabitat
p3357
aVhabitu
p3358
aVhack
p3359
aVhacker
p3360
aVhadlow
p3361
aVhadnt
p3362
aVhadoop
p3363
aVhadrian
p3364
aVhadron
p3365
aVhaemophilia
p3366
aVhaemorrhag
p3367
aVhagen
p3368
aVhagrid
p3369
aVhagu
p3370
aVhail
p3371
aVhainan
p3372
aVhair
p3373
aVhaircut
p3374
aVhairdress
p3375
aVhaixun
p3376
aVhala
p3377
aVhalf
p3378
aVhalf-chines
p3379
aVhalf-day
p3380
aVhalf-marathon
p3381
aVhalf-sent
p3382
aVhalf-tim
p3383
aVhalfway
p3384
aVhall
p3385
aVhallam
p3386
aVhallow
p3387
aVhallway
p3388
aVhalo
p3389
aVhalsal
p3390
aVhalt
p3391
aVhalv
p3392
aVham
p3393
aVhamburg
p3394
aVhamilton
p3395
aVhamlet
p3396
aVhammer
p3397
aVhammond
p3398
aVhampshir
p3399
aVhamstr
p3400
aVhand
p3401
aVhandbag
p3402
aVhandheld
p3403
aVhandl
p3404
aVhandov
p3405
aVhandset
p3406
aVhandshak
p3407
aVhang
p3408
aVhanger
p3409
aVhangers-on
p3410
aVhaphazard
p3411
aVhapless
p3412
aVhappen
p3413
aVhappi
p3414
aVhappiest
p3415
aVhappili
p3416
aVhar
p3417
aVharass
p3418
aVharcourt
p3419
aVhard
p3420
aVhard-pack
p3421
aVhardcor
p3422
aVharden
p3423
aVharder
p3424
aVhardest
p3425
aVhardlin
p3426
aVhardman
p3427
aVhardwar
p3428
aVhare
p3429
aVhargrav
p3430
aVhargreav
p3431
aVharm
p3432
aVharman
p3433
aVharmoni
p3434
aVharri
p3435
aVharriet
p3436
aVharrison
p3437
aVharsh
p3438
aVharsher
p3439
aVharvest
p3440
aVharvey
p3441
aVharwich
p3442
aVhasnt
p3443
aVhastili
p3444
aVhat
p3445
aVhatch
p3446
aVhate
p3447
aVhatfield
p3448
aVhathaway
p3449
aVhaul
p3450
aVhaunt
p3451
aVhauraki
p3452
aVhaven
p3453
aVhavent
p3454
aVhawaii
p3455
aVhawaiian
p3456
aVhawk
p3457
aVhawker
p3458
aVhawkhead
p3459
aVhawkin
p3460
aVhayden
p3461
aVhaystack
p3462
aVhazard
p3463
aVhazel
p3464
aVhbo
p3465
aVhead
p3466
aVhead-scratch
p3467
aVheader
p3468
aVheadley
p3469
aVheadlin
p3470
aVheadphon
p3471
aVheadquart
p3472
aVheadwind
p3473
aVheal
p3474
aVhealth
p3475
aVhealth-work
p3476
aVhealthi
p3477
aVhear
p3478
aVheard
p3479
aVhearn
p3480
aVheart
p3481
aVheartbeat
p3482
aVheartble
p3483
aVheartland
p3484
aVheat
p3485
aVheath
p3486
aVheatherwick
p3487
aVheathrow
p3488
aVheaton
p3489
aVheavi
p3490
aVheaviest
p3491
aVheavili
p3492
aVhebrew
p3493
aVhebrid
p3494
aVheckman
p3495
aVhectic
p3496
aVhed
p3497
aVhedd
p3498
aVhedg
p3499
aVheed
p3500
aVheight
p3501
aVheighten
p3502
aVheineken
p3503
aVheinrich
p3504
aVheir
p3505
aVheist
p3506
aVheld
p3507
aVhelen
p3508
aVhelena
p3509
aVhelicopt
p3510
aVhell
p3511
aVhelm
p3512
aVhelp
p3513
aVhelper
p3514
aVhem
p3515
aVhemeri
p3516
aVhemispher
p3517
aVhenc
p3518
aVhenley
p3519
aVhennessi
p3520
aVhenri
p3521
aVhepat
p3522
aVhepworth
p3523
aVherald
p3524
aVherb
p3525
aVherbert
p3526
aVhereditari
p3527
aVhereford-born
p3528
aVheritag
p3529
aVherman
p3530
aVhernandez
p3531
aVhero
p3532
aVheroin
p3533
aVheron
p3534
aVherp
p3535
aVhertfordshir
p3536
aVhes
p3537
aVhesa
p3538
aVheseltin
p3539
aVhesit
p3540
aVhey
p3541
aVhi-tech
p3542
aVhid
p3543
aVhidden
p3544
aVhide
p3545
aVhierarchi
p3546
aVhiggin
p3547
aVhigh
p3548
aVhigh-achiev
p3549
aVhigh-calibr
p3550
aVhigh-co
p3551
aVhigh-end
p3552
aVhigh-energi
p3553
aVhigh-fli
p3554
aVhigh-incom
p3555
aVhigh-paid
p3556
aVhigh-perform
p3557
aVhigh-profil
p3558
aVhigh-qual
p3559
aVhigh-scor
p3560
aVhigh-secur
p3561
aVhigh-tempo
p3562
aVhigher
p3563
aVhigher-than-expect
p3564
aVhighest
p3565
aVhighland
p3566
aVhighlight
p3567
aVhighway
p3568
aVhike
p3569
aVhill
p3570
aVhillock
p3571
aVhillsborough
p3572
aVhind
p3573
aVhinder
p3574
aVhint
p3575
aVhip-hop
p3576
aVhippi
p3577
aVhire
p3578
aVhiroshi
p3579
aVhistor
p3580
aVhistori
p3581
aVhistorian
p3582
aVhit
p3583
aVhither
p3584
aVhiv
p3585
aVhiv-neg
p3586
aVhiv-posit
p3587
aVhivaid
p3588
aVhive
p3589
aVhk
p3590
aVhk-list
p3591
aVhla
p3592
aVhm
p3593
aVhms
p3594
aVhmv
p3595
aVho
p3596
aVhoard
p3597
aVhoax
p3598
aVhobbi
p3599
aVhodgkin
p3600
aVhogan
p3601
aVhoggart
p3602
aVhold
p3603
aVholder
p3604
aVhole
p3605
aVholger
p3606
aVholiday
p3607
aVholist
p3608
aVhollywood
p3609
aVholm
p3610
aVholocaust
p3611
aVholt
p3612
aVhomag
p3613
aVhome
p3614
aVhome-ground
p3615
aVhome-grown
p3616
aVhome-mad
p3617
aVhomecom
p3618
aVhomegrown
p3619
aVhomeland
p3620
aVhomestak
p3621
aVhomework
p3622
aVhonda
p3623
aVhone
p3624
aVhonest
p3625
aVhoney
p3626
aVhong
p3627
aVhongkong
p3628
aVhonorari
p3629
aVhonour
p3630
aVhood
p3631
aVhook
p3632
aVhoop
p3633
aVhoot
p3634
aVhope
p3635
aVhopkin
p3636
aVhorizon
p3637
aVhormon
p3638
aVhorrend
p3639
aVhorribl
p3640
aVhorrifi
p3641
aVhorror
p3642
aVhors
p3643
aVhorseman
p3644
aVhorticultur
p3645
aVhospit
p3646
aVhost
p3647
aVhost-virus
p3648
aVhot
p3649
aVhotcours
p3650
aVhotel
p3651
aVhotlin
p3652
aVhotspot
p3653
aVhotter
p3654
aVhottest
p3655
aVhounslow
p3656
aVhour
p3657
aVhour-and-a-half
p3658
aVhour-long
p3659
aVhous
p3660
aVhousehold
p3661
aVhouston
p3662
aVhover
p3663
aVhoward
p3664
aS'howe'
p3665
aVhowev
p3666
aVhoy
p3667
aVhr
p3668
aVhrs
p3669
aVhtc
p3670
aVhuang
p3671
aVhub
p3672
aVhubi
p3673
aVhuddersfield
p3674
aVhuge
p3675
aVhugh
p3676
aVhuhn
p3677
aVhull
p3678
aVhuman
p3679
aVhumanitarian
p3680
aVhumbl
p3681
aVhumil
p3682
aVhumour
p3683
aVhumpback
p3684
aVhunch
p3685
aVhundr
p3686
aVhundredth
p3687
aVhung
p3688
aVhungari
p3689
aVhunger
p3690
aVhungri
p3691
aVhungrili
p3692
aVhunk
p3693
aVhunt
p3694
aVhunter
p3695
aVhurdl
p3696
aVhurri
p3697
aVhurrican
p3698
aVhurst
p3699
aVhurt
p3700
aVhusband
p3701
aVhustl
p3702
aVhut
p3703
aVhutch
p3704
aVhuw
p3705
aVhybrid
p3706
aVhydrogen
p3707
aVhygien
p3708
aVhype
p3709
aVhypothesi
p3710
aVhypponen
p3711
aVhytner
p3712
aViain
p3713
aVian
p3714
aViannon
p3715
aVibf
p3716
aVibi
p3717
aVibm
p3718
aVibrox
p3719
aVice
p3720
aVice-whit
p3721
aViceberg
p3722
aVicm
p3723
aVicon
p3724
aVid
p3725
aVidea
p3726
aVideal
p3727
aVident
p3728
aVidentif
p3729
aVidentifi
p3730
aVidiot
p3731
aVie
p3732
aVif
p3733
aVig
p3734
aVignit
p3735
aVignor
p3736
aVii
p3737
aViie
p3738
aVike
p3739
aVill
p3740
aVill-research
p3741
aVill-thought-out
p3742
aVilleg
p3743
aVillegitimaci
p3744
aVillicit
p3745
aVilliquid
p3746
aVilliter
p3747
aVilliteraci
p3748
aVillus
p3749
aVillustr
p3750
aVillustri
p3751
aVilyn
p3752
aVim
p3753
aVimag
p3754
aVimageri
p3755
aVimagin
p3756
aVimaginari
p3757
aVimf
p3758
aVimmedi
p3759
aVimmens
p3760
aVimmigr
p3761
aVimmor
p3762
aVimmun
p3763
aVimmunis
p3764
aVimpact
p3765
aVimpair
p3766
aVimpass
p3767
aVimpati
p3768
aVimpecc
p3769
aVimped
p3770
aVimpend
p3771
aVimperi
p3772
aVimperson
p3773
aVimpetus
p3774
aVimplant
p3775
aVimplement
p3776
aVimplic
p3777
aVimplicit
p3778
aVimport
p3779
aVimpos
p3780
aVimposs
p3781
aVimpract
p3782
aVimpress
p3783
aVimprov
p3784
aVimpuls
p3785
aVimri
p3786
aVin-depth
p3787
aVin-out
p3788
aVin-stor
p3789
aVinact
p3790
aVinadequ
p3791
aVinappropri
p3792
aVinbox
p3793
aVinbreed
p3794
aVincap
p3795
aVincent
p3796
aVincept
p3797
aVinch
p3798
aVincid
p3799
aVincident
p3800
aVinclud
p3801
aVinclus
p3802
aVincom
p3803
aVinconclus
p3804
aVinconsist
p3805
aVinconveni
p3806
aVincorpor
p3807
aVincorrect
p3808
aVincreas
p3809
aVincred
p3810
aVincrement
p3811
aVincub
p3812
aVinculc
p3813
aVincumb
p3814
aVincur
p3815
aVincurs
p3816
aVinde
p3817
aVindec
p3818
aVindefens
p3819
aVindepend
p3820
aVindex
p3821
aVindhu
p3822
aVindi
p3823
aVindia
p3824
aVindian
p3825
aVindic
p3826
aVindict
p3827
aVindigo
p3828
aVindiscrimin
p3829
aVindividu
p3830
aVindonesia
p3831
aVindoor
p3832
aVinduc
p3833
aVinduct
p3834
aVindustri
p3835
aVindustrialis
p3836
aVindustry-target
p3837
aVindustry-wid
p3838
aVineffici
p3839
aVinelig
p3840
aVinequ
p3841
aVinertia
p3842
aVinescap
p3843
aVinevit
p3844
aVinfam
p3845
aVinfant
p3846
aVinfect
p3847
aVinfer
p3848
aVinferior
p3849
aVinfidel
p3850
aVinflam
p3851
aVinflammatori
p3852
aVinflat
p3853
aVinflict
p3854
aVinfluenc
p3855
aVinfluenti
p3856
aVinfluenza
p3857
aVinform
p3858
aVinfrastructur
p3859
aVinfring
p3860
aVing
p3861
aVingredi
p3862
aVingss
p3863
aVinhabit
p3864
aVinhal
p3865
aVinher
p3866
aVinherit
p3867
aViniti
p3868
aVinject
p3869
aVinjunct
p3870
aVinjur
p3871
aVinjuri
p3872
aVinjustic
p3873
aVink
p3874
aVinner
p3875
aVinnov
p3876
aVinnumer
p3877
aVinout
p3878
aVinpati
p3879
aVinput
p3880
aVinquest
p3881
aVinquiri
p3882
aVinquisitor
p3883
aVinsati
p3884
aVinsect
p3885
aVinsecur
p3886
aVinsid
p3887
aVinsidi
p3888
aVinsight
p3889
aVinsincer
p3890
aVinsist
p3891
aVinspect
p3892
aVinspector
p3893
aVinspir
p3894
aVinstabl
p3895
aVinstal
p3896
aVinstanc
p3897
aVinstant
p3898
aVinstead
p3899
aVinstil
p3900
aVinstinct
p3901
aVinstitut
p3902
aVinstruct
p3903
aVinstructor
p3904
aVinstrument
p3905
aVinsul
p3906
aVintak
p3907
aVintegr
p3908
aVintellectu
p3909
aVintellig
p3910
aVintend
p3911
aVintens
p3912
aVintent
p3913
aVinter
p3914
aVinteract
p3915
aVintercept
p3916
aVinterconnect
p3917
aVinterconnector
p3918
aVintercours
p3919
aVinterest
p3920
aVinterf
p3921
aVinterfac
p3922
aVinterfer
p3923
aVintergovernment
p3924
aVinterim
p3925
aVinterlock
p3926
aVintermitt
p3927
aVintern
p3928
aVinternet
p3929
aVinternship
p3930
aVinterperson
p3931
aVinterpret
p3932
aVinterrupt
p3933
aVintertwin
p3934
aVinterv
p3935
aVinterven
p3936
aVintervent
p3937
aVinterview
p3938
aVinterwov
p3939
aVintestin
p3940
aVintim
p3941
aVintimaci
p3942
aVintrigu
p3943
aVintroduc
p3944
aVintroduct
p3945
aVintrud
p3946
aVintrus
p3947
aVinvent
p3948
aVinventor
p3949
aVinventori
p3950
aVinver
p3951
aVinvest
p3952
aVinvestig
p3953
aVinvestor
p3954
aVinvis
p3955
aVinvit
p3956
aVinvoic
p3957
aVinvolv
p3958
aVio
p3959
aViona
p3960
aViowa
p3961
aVipad
p3962
aVipc
p3963
aVipcc
p3964
aViphon
p3965
aViphone-
p3966
aVipsa
p3967
aVipso
p3968
aVipsos-mori
p3969
aViq
p3970
aVira
p3971
aViraq
p3972
aVire
p3973
aVireland
p3974
aViri
p3975
aVirina
p3976
aVirish
p3977
aVirish-bas
p3978
aViron
p3979
aVironman
p3980
aVirregular
p3981
aVirresist
p3982
aVirrit
p3983
aVislam
p3984
aVislamist
p3985
aVisland
p3986
aVislay
p3987
aVisnt
p3988
aVisol
p3989
aVisp
p3990
aVisra
p3991
aVisrael
p3992
aVissu
p3993
aVissuanc
p3994
aVitali
p3995
aVitalian
p3996
aVitalyfr
p3997
aVitem
p3998
aViten
p3999
aVitinerari
p4000
aVitll
p4001
aVitri
p4002
aVitun
p4003
aVive
p4004
aVivi
p4005
aVivori
p4006
aVj
p4007
aVjab
p4008
aVjack
p4009
aVjacket
p4010
aVjacki
p4011
aVjackman
p4012
aVjackson
p4013
aVjacob
p4014
aVjail
p4015
aVjakarta
p4016
aVjake
p4017
aVjam
p4018
aVjame
p4019
aVjameela
p4020
aVjami
p4021
aVjamieson
p4022
aVjamil
p4023
aVjaneiro
p4024
aVjanic
p4025
aVjanschwalde-nord
p4026
aVjanuari
p4027
aVjapan
p4028
aVjapanes
p4029
aVjar
p4030
aVjargon
p4031
aVjarvi
p4032
aVjason
p4033
aVjasvind
p4034
aVjavid
p4035
aVjaw
p4036
aVjawbon
p4037
aVjayn
p4038
aVjealousi
p4039
aVjean
p4040
aVjean-jacqu
p4041
aVjean-marc
p4042
aVjedda
p4043
aVjedinak
p4044
aVjeep
p4045
aVjen
p4046
aVjenni
p4047
aVjennif
p4048
aVjeopardis
p4049
aVjeptoo
p4050
aVjeremi
p4051
aVjerk
p4052
aVjermain
p4053
aVjerom
p4054
aVjersey
p4055
aVjerusalem
p4056
aVjess
p4057
aVjessi
p4058
aVjesus
p4059
aVjet
p4060
aVjetz
p4061
aVjew
p4062
aVjewel
p4063
aVjewelleri
p4064
aVjewish
p4065
aVjim
p4066
aVjimmi
p4067
aVjink
p4068
aVjk
p4069
aVjo
p4070
aVjoanna
p4071
aVjob
p4072
aVjob-seek
p4073
aVjobseek
p4074
aVjockey
p4075
aVjoe
p4076
aVjoel
p4077
aVjohann
p4078
aVjohn
p4079
aVjohn-jul
p4080
aVjohnni
p4081
aVjohnson
p4082
aVjoin
p4083
aVjoint
p4084
aVjoke
p4085
aVjoleon
p4086
aVjoli
p4087
aVjolt
p4088
aVjon
p4089
aVjon-allan
p4090
aVjona
p4091
aVjonathan
p4092
aVjone
p4093
aVjoness
p4094
aVjonni
p4095
aVjordan
p4096
aVjorg
p4097
aVjose
p4098
aVjosep
p4099
aVjosh
p4100
aVjournal
p4101
aVjournalist
p4102
aVjourney
p4103
aVjourneymen
p4104
aVjoy
p4105
aVjoyc
p4106
aVjpmorgan
p4107
aVjuan
p4108
aVjubil
p4109
aVjudg
p4110
aVjudgement
p4111
aVjudgment
p4112
aVjudi
p4113
aVjudici
p4114
aVjudith
p4115
aVjuic
p4116
aVjuli
p4117
aVjulia
p4118
aVjulian
p4119
aVjuliana
p4120
aVjump
p4121
aVjune
p4122
aVjunior
p4123
aVjunk
p4124
aVjupit
p4125
aVjuri
p4126
aVjustic
p4127
aVjustifi
p4128
aVjustin
p4129
aVjzsef
p4130
aVk
p4131
aVkabbag
p4132
aVkagisho
p4133
aVkagu
p4134
aVkaiser
p4135
aVkakapo
p4136
aVkalbasi
p4137
aVkallio
p4138
aVkampala
p4139
aVkamukama
p4140
aVkangaroo
p4141
aVkaranka
p4142
aVkarel
p4143
aVkarim
p4144
aVkarma
p4145
aVkasahara
p4146
aVkasetsiri
p4147
aVkasperski
p4148
aVkate
p4149
aVkatherin
p4150
aVkathryn
p4151
aVkati
p4152
aVkaya
p4153
aVkaymer
p4154
aVkean
p4155
aVkeat
p4156
aVkebed
p4157
aVkedroski
p4158
aVkeen
p4159
aVkeep
p4160
aVkeepass
p4161
aVkeeper
p4162
aVkeija
p4163
aVkeith
p4164
aVkell
p4165
aVkellaway
p4166
aVkelleh
p4167
aVkelley
p4168
aVkelli
p4169
aVkemfert
p4170
aVkemp
p4171
aVken
p4172
aVkenenisa
p4173
aVkennaugh
p4174
aVkennedi
p4175
aVkenni
p4176
aVkent
p4177
aVkentutsi
p4178
aVkenya
p4179
aVkept
p4180
aVkerr
p4181
aVkerslak
p4182
aVkerstin
p4183
aVkevin
p4184
aVkey
p4185
aVkeynot
p4186
aVkg
p4187
aVkhan
p4188
aVkhatchikian
p4189
aVkhor
p4190
aVkibbutz
p4191
aVkick
p4192
aVkick-off
p4193
aVkick-start
p4194
aVkickstart
p4195
aVkid
p4196
aVkidney
p4197
aVkieran
p4198
aVkiev
p4199
aVkight
p4200
aVkilburn
p4201
aVkill
p4202
aVkiller
p4203
aVkilli
p4204
aVkilo
p4205
aVkilobit
p4206
aVkilogram
p4207
aVkilometr
p4208
aVkim
p4209
aVkimetto
p4210
aVkind
p4211
aVkinder
p4212
aVkindergarten
p4213
aVking
p4214
aVkingdom
p4215
aVkingston
p4216
aVkinnock
p4217
aVkiprotich
p4218
aVkipsang
p4219
aVkirsti
p4220
aVkisidougou
p4221
aVkiss
p4222
aVkit
p4223
aVkitchen
p4224
aVkite
p4225
aVkiva
p4226
aVkiwi
p4227
aVkm
p4228
aVkm-high
p4229
aVkmh
p4230
aVknee
p4231
aVknee-jerk
p4232
aVkneejerk
p4233
aVknew
p4234
aVknight
p4235
aVknighthood
p4236
aVknock
p4237
aVknock-on
p4238
aVknocking-on
p4239
aVknockout
p4240
aVknow
p4241
aVknowledg
p4242
aVknown
p4243
aVkoech
p4244
aVkohler-cadmor
p4245
aVkoke
p4246
aVkolarov
p4247
aVkompani
p4248
aVkong
p4249
aVkonstantopoulo
p4250
aVkoon
p4251
aVkorea
p4252
aVkorean
p4253
aVkospi
p4254
aVkreb
p4255
aVkremlin
p4256
aVksenia
p4257
aVkun
p4258
aVkutal
p4259
aVkwh
p4260
aVkyaw
p4261
aVkyetum
p4262
aVkyi
p4263
aVkyli
p4264
aVl
p4265
aVla
p4266
aVlab
p4267
aVlab-grown
p4268
aVlabel
p4269
aVlabor
p4270
aVlaboratori
p4271
aVlabour
p4272
aVlabour-l
p4273
aVlaci
p4274
aVlack
p4275
aVlacklustr
p4276
aVlad
p4277
aVlada
p4278
aVladder
p4279
aVladdi
p4280
aVladi
p4281
aVlaffranchi
p4282
aVlafontain
p4283
aVlag
p4284
aVlaid
p4285
aVlake
p4286
aVlam
p4287
aVlamacq
p4288
aVlamb
p4289
aVlambert
p4290
aVlament
p4291
aVlamont
p4292
aVlamp
p4293
aVlancast
p4294
aVlancet
p4295
aVland
p4296
aVlandfil
p4297
aVlandmark
p4298
aVlandmass
p4299
aVlandown
p4300
aVlandscap
p4301
aVlandslid
p4302
aVlane
p4303
aVlanger
p4304
aVlangland
p4305
aVlanguag
p4306
aVlansley
p4307
aVlao
p4308
aVlap
p4309
aVlaps
p4310
aVlaptop
p4311
aVlar
p4312
aVlarg
p4313
aVlarge-scal
p4314
aVlarger
p4315
aVlargest
p4316
aVlas
p4317
aVlaser
p4318
aVlaser-bas
p4319
aVlaser-lik
p4320
aVlast
p4321
aVlast-ditch
p4322
aVlastpass
p4323
aVlatch
p4324
aVlate
p4325
aVlate-night
p4326
aVlater
p4327
aVlatest
p4328
aVlatin
p4329
aVlatitud
p4330
aVlau
p4331
aVlaugh
p4332
aVlaugh-fest
p4333
aVlaughabl
p4334
aVlaunch
p4335
aVlaura
p4336
aVlaurenson
p4337
aVlaurent
p4338
aVlausitz
p4339
aVlava
p4340
aVlaw
p4341
aVlawless
p4342
aVlawrenc
p4343
aVlawrenson
p4344
aVlawro
p4345
aVlawyer
p4346
aVlay
p4347
aVlayer
p4348
aVlazi
p4349
aVlazio
p4350
aVlb
p4351
aVle
p4352
aVlea
p4353
aVlead
p4354
aVleadbitt
p4355
aVleader
p4356
aVleadership
p4357
aVleagu
p4358
aVleak
p4359
aVleakag
p4360
aVlean
p4361
aVleann
p4362
aVleap
p4363
aVlearn
p4364
aVlearner
p4365
aVlearnt
p4366
aVleas
p4367
aVleast
p4368
aVleather
p4369
aVleatherdal
p4370
aVleav
p4371
aVlectur
p4372
aVled
p4373
aVledesma
p4374
aVledley
p4375
aVlee
p4376
aVleech
p4377
aVleed
p4378
aVleft
p4379
aVleft-back
p4380
aVleft-foot
p4381
aVleft-hand
p4382
aVleft-ov
p4383
aVleft-sid
p4384
aVlefti
p4385
aVleftov
p4386
aVleftw
p4387
aVleg
p4388
aVlegaci
p4389
aVlegal
p4390
aVlegend
p4391
aVlegisl
p4392
aVlegitim
p4393
aVleicest
p4394
aVleisur
p4395
aVleiva
p4396
aVlel
p4397
aVlelisa
p4398
aVlen
p4399
aVlend
p4400
aVlender
p4401
aVlength
p4402
aVlenient
p4403
aVlent
p4404
aVlentil
p4405
aVleon
p4406
aVlep
p4407
aVlescott
p4408
aVlesli
p4409
aVlesnikova
p4410
aVless
p4411
aVlessen
p4412
aVlesser
p4413
aVlesson
p4414
aVlester
p4415
aVlet
p4416
aVletter
p4417
aVletterman
p4418
aVleung
p4419
aVleve
p4420
aVlevel
p4421
aVlever
p4422
aVlew
p4423
aVlewi
p4424
aVleyl
p4425
aVlg
p4426
aVlgas
p4427
aVli-wei
p4428
aVliabl
p4429
aVliam
p4430
aVlian
p4431
aVliao
p4432
aVlib
p4433
aVliban
p4434
aVliber
p4435
aVliberia
p4436
aVliberti
p4437
aVlibrari
p4438
aVlibrarian
p4439
aVlibya
p4440
aVlicenc
p4441
aVlicens
p4442
aVlid
p4443
aVlie
p4444
aVlife
p4445
aVlife-long
p4446
aVlifeblood
p4447
aVlifetim
p4448
aVlift
p4449
aVliga
p4450
aVlight
p4451
aVlight-weight
p4452
aVlight-year
p4453
aVlighter
p4454
aVlighthous
p4455
aVlightman
p4456
aVlightn
p4457
aVlignit
p4458
aVlike
p4459
aVliken
p4460
aVlikewis
p4461
aVlili
p4462
aVlilley
p4463
aVlim
p4464
aVlimb
p4465
aVlimit
p4466
aVlimited-numb
p4467
aVlin
p4468
aVlindblad-toh
p4469
aVline
p4470
aVline-up
p4471
aVliner
p4472
aVlineup
p4473
aVlinguist
p4474
aVlink
p4475
aVlink-up
p4476
aVlinslad
p4477
aVlip
p4478
aVliquefi
p4479
aVliquid
p4480
aVlist
p4481
aVlisten
p4482
aVlit
p4483
aVliter
p4484
aVliteraci
p4485
aVliterari
p4486
aVliteratur
p4487
aVlithuania
p4488
aVlitr
p4489
aVlitter
p4490
aVlittl
p4491
aVlittler
p4492
aVliu
p4493
aVlive
p4494
aVliver
p4495
aVliverpool
p4496
aVlivesey
p4497
aVlivi
p4498
aVlivingston
p4499
aVliz
p4500
aVlizard
p4501
aVlizo
p4502
aVlizzi
p4503
aVllangollen
p4504
aVlleida
p4505
aVlloyd
p4506
aVlng
p4507
aVlo
p4508
aVload
p4509
aVloan
p4510
aVloath
p4511
aVlob
p4512
aVlobbi
p4513
aVlocal
p4514
aVlocal-born
p4515
aVlocalis
p4516
aVlocat
p4517
aVlock
p4518
aVlock-in
p4519
aVlocker
p4520
aVlocomot
p4521
aVloft
p4522
aVlog
p4523
aVlogic
p4524
aVloi
p4525
aVlolita
p4526
aVlomax
p4527
aVlondon
p4528
aVlondon-bas
p4529
aVlone
p4530
aVloneli
p4531
aVlonergan
p4532
aVlong
p4533
aVlong-await
p4534
aVlong-establish
p4535
aVlong-last
p4536
aVlong-liv
p4537
aVlong-rang
p4538
aVlong-stand
p4539
aVlong-term
p4540
aVlong-tim
p4541
aVlonger
p4542
aVlonger-term
p4543
aVlongest
p4544
aVlongev
p4545
aVlongstand
p4546
aVlook
p4547
aVlooked-aft
p4548
aVloom
p4549
aVloop
p4550
aVloos
p4551
aVloosen
p4552
aVlope
p4553
aVlord
p4554
aVlore
p4555
aVlos
p4556
aVlose
p4557
aVloss
p4558
aVlost
p4559
aVlot
p4560
aVlothian
p4561
aVloud
p4562
aVloughborough
p4563
aVloui
p4564
aVlouis
p4565
aVloung
p4566
aVlove
p4567
aVlover
p4568
aVlow
p4569
aVlow-budget
p4570
aVlow-carbon
p4571
aVlow-end
p4572
aVlow-energi
p4573
aVlow-pow
p4574
aVlow-tech
p4575
aVlower
p4576
aVlowest
p4577
aVlowest-earn
p4578
aVlowton
p4579
aVloyal
p4580
aVloyalti
p4581
aVltd
p4582
aVlu
p4583
aVlubric
p4584
aVluca
p4585
aVluci
p4586
aVluck
p4587
aVlucki
p4588
aVluckili
p4589
aVludicr
p4590
aVluhansk
p4591
aVlui
p4592
aVluke
p4593
aVlumin
p4594
aVlunch
p4595
aVlunchbox
p4596
aVlung
p4597
aVlurch
p4598
aVlure
p4599
aVlurk
p4600
aVlush
p4601
aVluton
p4602
aVluvvi
p4603
aVlux
p4604
aVluxuri
p4605
aVlyle
p4606
aVlymphoma
p4607
aVlynam
p4608
aVlynch
p4609
aVlynda
p4610
aVlynett
p4611
aVlynx
p4612
aVlyric
p4613
aVm
p4614
aVm-a-year
p4615
aVm-long
p4616
aVm-shark
p4617
aVma
p4618
aVmaastricht
p4619
aVmacaw
p4620
aVmacdonald
p4621
aVmacenta
p4622
aVmachin
p4623
aVmachineri
p4624
aVmackay-steven
p4625
aVmackey
p4626
aVmadagascar
p4627
aVmade
p4628
aVmadoff
p4629
aVmadrid
p4630
aVmaendeleo
p4631
aVmaf
p4632
aVmagazin
p4633
aVmaggi
p4634
aVmagic
p4635
aVmagnet
p4636
aVmagnific
p4637
aVmagnolia
p4638
aVmahmood
p4639
aVmaiden
p4640
aVmail
p4641
aVmailbag
p4642
aVmain
p4643
aVmainland
p4644
aVmainstream
p4645
aVmaintain
p4646
aVmainten
p4647
aVmajesti
p4648
aVmajor
p4649
aVmakau
p4650
aVmake
p4651
aVmakelel
p4652
aVmaker
p4653
aVmakeshift
p4654
aVmakinson
p4655
aVmako
p4656
aVmalaria
p4657
aVmalawi
p4658
aVmalaysia
p4659
aVmale
p4660
aVmali
p4661
aVmalici
p4662
aVmall
p4663
aVmalt
p4664
aVmaltos
p4665
aVmalvern
p4666
aVmalvertis
p4667
aVmammal
p4668
aVman
p4669
aVman-mad
p4670
aVmanag
p4671
aVmanageri
p4672
aVmanchest
p4673
aVmancunian
p4674
aVmandalay
p4675
aVmandela
p4676
aVmandelson
p4677
aVmandi
p4678
aVmaneat
p4679
aVmangan
p4680
aVmangrov
p4681
aVmanhattan
p4682
aVmani
p4683
aVmanic
p4684
aVmanifest
p4685
aVmanifesto
p4686
aVmanila
p4687
aVmanipul
p4688
aVmanner
p4689
aVmanni
p4690
aVmanoeuvr
p4691
aVmanor
p4692
aVmanpow
p4693
aVmansfield
p4694
aVmantra
p4695
aVmanu
p4696
aVmanuel
p4697
aVmanufactur
p4698
aVmap
p4699
aVmapl
p4700
aVmaqbool
p4701
aVmar
p4702
aVmaradona
p4703
aVmarathon
p4704
aVmarc
p4705
aVmarch
p4706
aVmarch-styl
p4707
aVmargaret
p4708
aVmargin
p4709
aVmarginalis
p4710
aVmari
p4711
aVmaria
p4712
aVmariana
p4713
aVmariano
p4714
aVmariappa
p4715
aVmarigold
p4716
aVmarin
p4717
aVmario
p4718
aVmarion
p4719
aVmarisa
p4720
aVmaritim
p4721
aVmark
p4722
aVmarket
p4723
aVmarketplac
p4724
aVmarney
p4725
aVmarouan
p4726
aVmarquez
p4727
aVmarri
p4728
aVmarriag
p4729
aVmartial
p4730
aVmartin
p4731
aVmarvel
p4732
aVmaryland
p4733
aVmask
p4734
aVmaso
p4735
aVmason
p4736
aVmass
p4737
aVmassachusett
p4738
aVmassey
p4739
aVmassiv
p4740
aVmaster
p4741
aVmastercard
p4742
aVmastermind
p4743
aVmasters-logo
p4744
aVmatador
p4745
aVmatch
p4746
aVmatchroom
p4747
aVmate
p4748
aVmateri
p4749
aVmath
p4750
aVmathemat
p4751
aVmatheson
p4752
aVmatt
p4753
aVmatter
p4754
aVmatthew
p4755
aVmatur
p4756
aVmaverick
p4757
aVmax
p4758
aVmaximis
p4759
aVmaximum
p4760
aVmay
p4761
aVmayb
p4762
aVmayonnais
p4763
aVmayor
p4764
aVmazda
p4765
aVmba
p4766
aVmbe
p4767
aVmcanea
p4768
aVmccall
p4769
aVmccann
p4770
aVmccarthy-scarsbrook
p4771
aVmcculloch
p4772
aVmcdougal
p4773
aVmcdowel
p4774
aVmcevoy
p4775
aVmcgeehan
p4776
aVmcgowan
p4777
aVmcguin
p4778
aVmcilroy
p4779
aVmcloughlin
p4780
aVmcnamara
p4781
aVmcshane
p4782
aVmeadowbank
p4783
aVmeal
p4784
aVmean
p4785
aVmeant
p4786
aVmeantim
p4787
aVmeanwhil
p4788
aVmearn
p4789
aVmeasl
p4790
aVmeasur
p4791
aVmeat
p4792
aVmechan
p4793
aVmedal
p4794
aVmedalist
p4795
aVmedallist
p4796
aVmedia
p4797
aVmediat
p4798
aVmedic
p4799
aVmedicin
p4800
aVmedium
p4801
aVmedium-s
p4802
aVmedley
p4803
aVmee
p4804
aVmeet
p4805
aVmeet-up
p4806
aVmegac
p4807
aVmegawatt
p4808
aVmegen
p4809
aVmekonnen
p4810
aVmelatonin
p4811
aVmelbourn
p4812
aVmelhuish
p4813
aVmelodi
p4814
aVmelros
p4815
aVmember
p4816
aVmembership
p4817
aVmemor
p4818
aVmemori
p4819
aVmen
p4820
aVmend
p4821
aVmenes
p4822
aVmening
p4823
aVmenswear
p4824
aVmental
p4825
aVmention
p4826
aVmentor
p4827
aVmenu
p4828
aVmenzi
p4829
aVmerchant
p4830
aVmerg
p4831
aVmerger
p4832
aVmerit
p4833
aVmerkel
p4834
aVmerri
p4835
aVmerrick
p4836
aVmerron
p4837
aVmess
p4838
aVmessag
p4839
aVmessi
p4840
aVmet
p4841
aVmetal
p4842
aVmeteorolog
p4843
aVmeter
p4844
aVmethan
p4845
aVmethod
p4846
aVmethodist
p4847
aVmethodolog
p4848
aVmeticul
p4849
aVmetop
p4850
aVmetop-sg
p4851
aVmetr
p4852
aVmetric
p4853
aVmetropoli
p4854
aVmetropolitan
p4855
aVmeurig
p4856
aVmexico
p4857
aVmezzo
p4858
aVmgm
p4859
aVmh
p4860
aVmhs
p4861
aVmi
p4862
aVmice
p4863
aVmichael
p4864
aVmichel
p4865
aVmichell
p4866
aVmick
p4867
aVmickelson
p4868
aVmicro-topographi
p4869
aVmicrobiolog
p4870
aVmicroscop
p4871
aVmicroscopi
p4872
aVmicrosoft
p4873
aVmid
p4874
aVmid-
p4875
aVmid-april
p4876
aVmid-th
p4877
aVmidcounti
p4878
aVmiddl
p4879
aVmiddle-class
p4880
aVmiddle-incom
p4881
aVmiddle-rank
p4882
aVmiddle-school
p4883
aVmiddlesbrough
p4884
aVmidfield
p4885
aVmidland
p4886
aVmidnight
p4887
aVmidway
p4888
aVmight
p4889
aVmigrant
p4890
aVmigrat
p4891
aVmika
p4892
aVmike
p4893
aVmikko
p4894
aVmilan
p4895
aVmild
p4896
aVmile
p4897
aVmileston
p4898
aVmiliband
p4899
aVmilit
p4900
aVmilitari
p4901
aVmilitarili
p4902
aVmilk
p4903
aVmilki
p4904
aVmill
p4905
aVmillar
p4906
aVmillennium
p4907
aVmiller
p4908
aVmillington
p4909
aVmillion
p4910
aVmillionair
p4911
aVmillisecond
p4912
aVmillpond
p4913
aVmilner
p4914
aVmimic
p4915
aVmimick
p4916
aVmin
p4917
aVmind
p4918
aVmine
p4919
aVminecraft
p4920
aVminefield
p4921
aVminer
p4922
aVminesweep
p4923
aVmini
p4924
aVmini-marathon
p4925
aVmini-sub
p4926
aVminia
p4927
aVminiatur
p4928
aVminimis
p4929
aVminimum
p4930
aVminist
p4931
aVministeri
p4932
aVministri
p4933
aVminogu
p4934
aVminor
p4935
aVminster
p4936
aVmint
p4937
aVminut
p4938
aVmiroslav
p4939
aVmirren
p4940
aVmirror
p4941
aVmischief
p4942
aVmiscommun
p4943
aVmisconcept
p4944
aVmisconduct
p4945
aVmisdiagnos
p4946
aVmiser
p4947
aVmiseri
p4948
aVmisfortun
p4949
aVmisguid
p4950
aVmisread
p4951
aVmiss
p4952
aVmission
p4953
aVmistak
p4954
aVmistaken
p4955
aVmisunderstand
p4956
aVmisus
p4957
aVmit
p4958
aVmitchel
p4959
aVmitig
p4960
aVmix
p4961
aVmixed-rac
p4962
aVmixtur
p4963
aVmla
p4964
aVmmarathon
p4965
aVmo
p4966
aVmoalimu
p4967
aVmobil
p4968
aVmock
p4969
aVmod
p4970
aVmode
p4971
aVmodel
p4972
aVmoder
p4973
aVmodern
p4974
aVmodern-look
p4975
aVmodernis
p4976
aVmodest
p4977
aVmodfath
p4978
aVmodul
p4979
aVmoffat
p4980
aVmogadishu
p4981
aVmoham
p4982
aVmohammad
p4983
aVmohsni
p4984
aVmoira
p4985
aVmole
p4986
aVmolecul
p4987
aVmoment
p4988
aVmomentum
p4989
aVmonarch
p4990
aVmonday
p4991
aVmonetari
p4992
aVmoney
p4993
aVmoneybox
p4994
aVmongodb
p4995
aVmonika
p4996
aVmonitor
p4997
aVmonkey
p4998
aVmono
p4999
aVmonopoli
p5000
aVmonster
p5001
aVmontagn
p5002
aVmontana
p5003
aVmontgomeri
p5004
aVmonth
p5005
aVmonument
p5006
aVmooc
p5007
aVmooc-typ
p5008
aVmoocer
p5009
aVmood
p5010
aVmoodi
p5011
aVmoon
p5012
aVmoonless
p5013
aVmoonv
p5014
aVmoor
p5015
aVmoral
p5016
aVmoran
p5017
aVmorell
p5018
aVmorgan
p5019
aVmorgaro
p5020
aVmori
p5021
aVmoriceau
p5022
aVmorn
p5023
aVmorri
p5024
aVmortar
p5025
aVmortgag
p5026
aVmosaic
p5027
aVmoscow
p5028
aVmoskalik
p5029
aVmost
p5030
aVmotel
p5031
aVmother
p5032
aVmotherwel
p5033
aVmotiv
p5034
aVmoto
p5035
aVmotogp
p5036
aVmotor
p5037
aVmotorist
p5038
aVmotorway
p5039
aVmould
p5040
aVmoulder
p5041
aVmount
p5042
aVmountain
p5043
aVmouth
p5044
aVmouthwat
p5045
aVmove
p5046
aVmoveabl
p5047
aVmovement
p5048
aVmover
p5049
aVmovi
p5050
aVmovistar
p5051
aVmowbray
p5052
aVmp
p5053
aVmps
p5054
aVmr
p5055
aVmrs
p5056
aVms
p5057
aVmuch
p5058
aVmuddi
p5059
aVmudflat
p5060
aVmuffett
p5061
aVmug
p5062
aVmuijr
p5063
aVmukono
p5064
aVmull
p5065
aVmulligan
p5066
aVmulti-billion-euro
p5067
aVmulti-classif
p5068
aVmulti-direct
p5069
aVmulti-stori
p5070
aVmulti-year
p5071
aVmultilater
p5072
aVmultipl
p5073
aVmultipli
p5074
aVmultitud
p5075
aVmum
p5076
aVmumbai
p5077
aVmummi
p5078
aVmunchetti
p5079
aVmunicip
p5080
aVmuppet
p5081
aVmurdoch
p5082
aVmurmur
p5083
aVmurray
p5084
aVmuscl
p5085
aVmuscular
p5086
aVmuseum
p5087
aVmuseum-visit
p5088
aVmuseveni
p5089
aVmusic
p5090
aVmusician
p5091
aVmuslim
p5092
aVmust
p5093
aVmust-win
p5094
aVmutai
p5095
aVmutat
p5096
aVmutual
p5097
aVmyanmar
p5098
aVmyersdorf
p5099
aVmyner
p5100
aVmyriad
p5101
aVmysteri
p5102
aVmystiqu
p5103
aVmythic
p5104
aVmzimba
p5105
aVn
p5106
aVna
p5107
aVnadir
p5108
aVnafophanu
p5109
aVnaga
p5110
aVnaht
p5111
aVnail
p5112
aVnairn
p5113
aVnaiv
p5114
aVnakagami
p5115
aVname
p5116
aVnamepl
p5117
aVnan
p5118
aVnanci
p5119
aVnankya
p5120
aVnano-cryst
p5121
aVnano-dot
p5122
aVnano-technolog
p5123
aVnanomet
p5124
aVnansen
p5125
aVnantou
p5126
aVnantwich
p5127
aVnapier
p5128
aVnapoleon
p5129
aVnarcolepsi
p5130
aVnarrat
p5131
aVnarrow
p5132
aVnarrowli
p5133
aVnasa
p5134
aVnasdaq
p5135
aVnasri
p5136
aVnasti
p5137
aVnasuwt
p5138
aVnatali
p5139
aVnathan
p5140
aVnathaniel
p5141
aVnation
p5142
aVnationwid
p5143
aVnato
p5144
aVnatur
p5145
aVnaval
p5146
aVnavi
p5147
aVnavig
p5148
aVnazi
p5149
aVnazir
p5150
aVnbcs
p5151
aVnd
p5152
aVnear
p5153
aVnearbi
p5154
aVneat
p5155
aVnecess
p5156
aVnecessari
p5157
aVnecessarili
p5158
aVnecessit
p5159
aVneck
p5160
aVned
p5161
aVneed
p5162
aVneedl
p5163
aVneedless
p5164
aVnegat
p5165
aVneglect
p5166
aVnegoti
p5167
aVnegredo
p5168
aVneighbour
p5169
aVneighbourhood
p5170
aVneil
p5171
aVneither
p5172
aVnelson
p5173
aVneon
p5174
aVnerv
p5175
aVnerve-wrack
p5176
aVnervosa
p5177
aVnervous
p5178
aVnest
p5179
aVnesta
p5180
aVnester
p5181
aVnestl
p5182
aVnet
p5183
aVnetapp
p5184
aVnetwork
p5185
aVneurolog
p5186
aVneuron
p5187
aVneurosurgeri
p5188
aVneuter
p5189
aVneutral
p5190
aVnever
p5191
aVnever-end
p5192
aVnevertheless
p5193
aVnevin
p5194
aVnew
p5195
aVnew-look
p5196
aVnew-styl
p5197
aVnewborn
p5198
aVnewcastl
p5199
aVnewcom
p5200
aVnewer
p5201
aVnewest
p5202
aVnewfoundland
p5203
aVnewli
p5204
aVnewly-adopt
p5205
aS'news'
p5206
aVnewsbeat
p5207
aVnewsnight
p5208
aVnewspap
p5209
aVnext
p5210
aVneyir
p5211
aVnfu
p5212
aVnguyen
p5213
aVnhs
p5214
aVnibbl
p5215
aVnice
p5216
aVnichol
p5217
aVnichola
p5218
aVnick
p5219
aVnicki
p5220
aVnicklaus
p5221
aVnicknam
p5222
aVnicol
p5223
aVnicola
p5224
aVnicolett
p5225
aVnigel
p5226
aVnigeria
p5227
aVniggl
p5228
aVnighi
p5229
aVnight
p5230
aVnightmar
p5231
aVniijima
p5232
aVniki
p5233
aVnine
p5234
aVnine-point
p5235
aVnine-year-old
p5236
aVninth
p5237
aVninth-round
p5238
aVnipper
p5239
aVniro
p5240
aVnirvana
p5241
aVnishino-shima
p5242
aVnitrat
p5243
aVnitrogen
p5244
aVnk
p5245
aVno-no
p5246
aVno-on
p5247
aVno-run
p5248
aVnoah
p5249
aVnobel
p5250
aVnobodi
p5251
aVnoc
p5252
aVnocturn
p5253
aVnois
p5254
aVnokia
p5255
aVnomin
p5256
aVnomine
p5257
aVnon
p5258
aVnon-descript
p5259
aVnon-domest
p5260
aVnon-euro
p5261
aVnon-european
p5262
aVnon-govern
p5263
aVnon-government
p5264
aVnon-islam
p5265
aVnon-leth
p5266
aVnon-meat
p5267
aVnon-particip
p5268
aVnon-pay
p5269
aVnon-phys
p5270
aVnon-process
p5271
aVnon-profit
p5272
aVnon-qt
p5273
aVnon-snp
p5274
aVnon-specif
p5275
aVnon-suspici
p5276
aVnon-teach
p5277
aVnon-tox
p5278
aVnone
p5279
aVnonetheless
p5280
aVnonsens
p5281
aVnoodl
p5282
aVnordstrom
p5283
aVnorfolk
p5284
aVnorm
p5285
aVnormal
p5286
aVnorman
p5287
aVnorrish
p5288
aVnorsk
p5289
aVnorth
p5290
aVnorthern
p5291
aVnorway
p5292
aVnorwich
p5293
aVnose
p5294
aVnose-job
p5295
aVnostalgia
p5296
aVnostril
p5297
aVnot-for-profit
p5298
aVnotabl
p5299
aVnotch
p5300
aVnote
p5301
aVnotebook
p5302
aVnoth
p5303
aVnotic
p5304
aVnotori
p5305
aVnottingham
p5306
aVnottinghamshir
p5307
aVnovel
p5308
aVnovelist
p5309
aVnovemb
p5310
aVnovic
p5311
aVnowaday
p5312
aVnowher
p5313
aVnpower
p5314
aVnsa
p5315
aVnuanc
p5316
aVnuclear
p5317
aVnudg
p5318
aVnuffield
p5319
aVnugent
p5320
aVnumber
p5321
aVnumer
p5322
aVnurs
p5323
aVnurseri
p5324
aVnurtur
p5325
aVnut
p5326
aVnutini
p5327
aVnutrit
p5328
aVnvidia
p5329
aVnyman
p5330
aVoak
p5331
aVoareford
p5332
aVoasi
p5333
aVobama
p5334
aVobject
p5335
aVoblig
p5336
aVobliqu
p5337
aVoblivi
p5338
aVobriain
p5339
aVobscen
p5340
aVobscur
p5341
aVobserv
p5342
aVobsess
p5343
aVobstacl
p5344
aVobstruct
p5345
aVobtain
p5346
aVobvious
p5347
aVocbc
p5348
aVoccas
p5349
aVoccasion
p5350
aVoccupi
p5351
aVoccur
p5352
aVoccurr
p5353
aVocd
p5354
aVocean
p5355
aVocean-floor
p5356
aVoceanethix
p5357
aVoceanograph
p5358
aVoclock
p5359
aVoconnor
p5360
aVoctob
p5361
aVodd
p5362
aVoecd
p5363
aVoeld
p5364
aVoetting
p5365
aVoff-target
p5366
aVoffa
p5367
aVoffenc
p5368
aVoffend
p5369
aVoffer
p5370
aVoffic
p5371
aVoffici
p5372
aVoffset
p5373
aVoffshor
p5374
aVoffsid
p5375
aVofqual
p5376
aVofst
p5377
aVoften
p5378
aVogasawara
p5379
aVogden
p5380
aVoh
p5381
aVohio
p5382
aVoie
p5383
aVoil
p5384
aVokcupid
p5385
aVokerek
p5386
aVolazab
p5387
aVold
p5388
aVold-fashion
p5389
aVolder
p5390
aVoldest
p5391
aVoleksandr
p5392
aVoligarch
p5393
aVolivi
p5394
aVolymp
p5395
aVolympian
p5396
aVomega
p5397
aVon
p5398
aVon-demand
p5399
aVonboard
p5400
aVonce-in-a-lifetim
p5401
aVone
p5402
aVone-day
p5403
aVone-fiftieth
p5404
aVone-hand
p5405
aVone-man
p5406
aVone-off
p5407
aVone-ov
p5408
aVone-size-fits-al
p5409
aVone-third
p5410
aVongo
p5411
aVonlin
p5412
aVonlook
p5413
aVonshor
p5414
aVonslaught
p5415
aVonto
p5416
aVonward
p5417
aVoor
p5418
aVoosthuizen
p5419
aVopen
p5420
aVopen-shut
p5421
aVopen-sourc
p5422
aVopencast
p5423
aVopenssl
p5424
aVoper
p5425
aVopera
p5426
aVopinion
p5427
aVoppon
p5428
aVopportun
p5429
aVopportunist
p5430
aVoppos
p5431
aVopposit
p5432
aVopt
p5433
aVopt-out
p5434
aVopta
p5435
aVoptic
p5436
aVoptician
p5437
aVoptim
p5438
aVoptimist
p5439
aVoption
p5440
aVorang
p5441
aVorbit
p5442
aVorchestra
p5443
aVordeal
p5444
aVorder
p5445
aVordinari
p5446
aVorf
p5447
aVorgan
p5448
aVorganis
p5449
aVorgasm
p5450
aVorient
p5451
aVorigin
p5452
aVorkney
p5453
aVorphan
p5454
aVorwel
p5455
aVosbert
p5456
aVosborn
p5457
aVoscar-win
p5458
aVoscil
p5459
aVossif
p5460
aVothello
p5461
aVother
p5462
aVotherwis
p5463
aVought
p5464
aVoust
p5465
aVout
p5466
aVout-of-area
p5467
aVout-of-hour
p5468
aVout-of-school
p5469
aVout-of-touch
p5470
aVoutag
p5471
aVoutbreak
p5472
aVoutcom
p5473
aVoutcri
p5474
aVoutdat
p5475
aVoutdoor
p5476
aVoutfit
p5477
aVoutgo
p5478
aVouting
p5479
aVoutlaw
p5480
aVoutlet
p5481
aVoutlin
p5482
aVoutlook
p5483
aVoutmuscl
p5484
aVoutperform
p5485
aVoutput
p5486
aVoutright
p5487
aVoutsid
p5488
aVoutstand
p5489
aVoutward
p5490
aVovat
p5491
aVover
p5492
aVover-arch
p5493
aVover-engag
p5494
aVover-lord
p5495
aVover-reli
p5496
aVover-run
p5497
aVover-s
p5498
aVoveral
p5499
aVoverarch
p5500
aVoverblown
p5501
aVovercapac
p5502
aVovercast
p5503
aVovercom
p5504
aVovercrowd
p5505
aVoverdon
p5506
aVoverdos
p5507
aVoverdraft
p5508
aVoverhaul
p5509
aVoverheard
p5510
aVoverinfl
p5511
aVoverlap
p5512
aVovernight
p5513
aVoverrid
p5514
aVoverse
p5515
aVoversea
p5516
aVoverseen
p5517
aVoversight
p5518
aVoverst
p5519
aVoversuppli
p5520
aVovertak
p5521
aVovertook
p5522
aVoverus
p5523
aVoverwhelm
p5524
aVovul
p5525
aVowe
p5526
aVowen
p5527
aVowl
p5528
aVowlet
p5529
aVowlet-nightjar
p5530
aVown
p5531
aVowner
p5532
aVownership
p5533
aVoxford
p5534
aVoxfordshir
p5535
aVoxley
p5536
aVoxygen
p5537
aVp
p5538
aVpa
p5539
aVpablo
p5540
aVpace
p5541
aVpacemak
p5542
aVpaceman
p5543
aVpachauri
p5544
aVpacif
p5545
aVpack
p5546
aVpackag
p5547
aVpacket
p5548
aVpackman
p5549
aVpacquiao
p5550
aVpad
p5551
aVpaddi
p5552
aVpadlock
p5553
aVpage
p5554
aVpaid
p5555
aVpain
p5556
aVpainless
p5557
aVpainstak
p5558
aVpaint
p5559
aVpaintbrush
p5560
aVpair
p5561
aVpakistan
p5562
aVpalac
p5563
aVpalacehul
p5564
aVpalestinian
p5565
aVpalin
p5566
aVpalmer
p5567
aVpanacea
p5568
aVpandan
p5569
aVpander
p5570
aVpanel
p5571
aVpanellist
p5572
aVpanic
p5573
aVpanicki
p5574
aVpant
p5575
aVpaolo
p5576
aVpapaya
p5577
aVpaper
p5578
aVpapillomavirus
p5579
aVpar
p5580
aVpar-fiv
p5581
aVpar-four
p5582
aVpar-thre
p5583
aVpara-cycl
p5584
aVpara-cyclist
p5585
aVparacel
p5586
aVparadox
p5587
aVparagraph
p5588
aVparallel
p5589
aVparalymp
p5590
aVparalympian
p5591
aVparamed
p5592
aVparamet
p5593
aVparent
p5594
aVpari
p5595
aVparis-bas
p5596
aVparis-roubaix
p5597
aVpariti
p5598
aVpark
p5599
aVparklif
p5600
aVparliament
p5601
aVparliamentari
p5602
aVparoxetin
p5603
aVparr
p5604
aVparrot
p5605
aVpart
p5606
aVpart-tim
p5607
aVparti
p5608
aVpartial
p5609
aVparticip
p5610
aVparticl
p5611
aVparticular
p5612
aVpartner
p5613
aVpartnership
p5614
aVpass
p5615
aVpassag
p5616
aVpassion
p5617
aVpassiv
p5618
aVpassport
p5619
aVpassword
p5620
aVpast
p5621
aVpasta
p5622
aVpat
p5623
aVpatch
p5624
aVpatchi
p5625
aVpatchwork
p5626
aVpate
p5627
aVpatel
p5628
aVpaterson
p5629
aVpath
p5630
aVpatholog
p5631
aVpathway
p5632
aVpatient
p5633
aVpaton
p5634
aVpatricia
p5635
aVpatrick
p5636
aVpatriot
p5637
aVpatrol
p5638
aVpatron
p5639
aVpatronis
p5640
aVpatsi
p5641
aVpattern
p5642
aVpaul
p5643
aVpaula
p5644
aVpaulin
p5645
aVpave
p5646
aVpavilion
p5647
aVpavlova
p5648
aVpavoni
p5649
aVpaxman
p5650
aVpaxo
p5651
aVpay
p5652
aVpayback
p5653
aVpayment
p5654
aVpayn
p5655
aVpaypal
p5656
aVpbs
p5657
aVpc
p5658
aVpcs
p5659
aVpdsa
p5660
aVpe
p5661
aVpeac
p5662
aVpeach
p5663
aVpeak
p5664
aVpeanut
p5665
aVpeati
p5666
aVpeculiar
p5667
aVpedrosa
p5668
aVpeer
p5669
aVpeer-to-p
p5670
aVpeerag
p5671
aVpeerless
p5672
aVpeg
p5673
aVpellegrini
p5674
aVpelvic
p5675
aVpembrokeshir
p5676
aVpen
p5677
aVpenalti
p5678
aVpencil
p5679
aVpendleton
p5680
aVpenetr
p5681
aVpeninsula
p5682
aVpenn
p5683
aVpennsylvania
p5684
aVpension
p5685
aVpent-up
p5686
aVpenultim
p5687
aVpeopl
p5688
aVpepi
p5689
aVpeptid
p5690
aVper
p5691
aVperalta
p5692
aVperceiv
p5693
aVpercentag
p5694
aVpercept
p5695
aVperch
p5696
aVperegrin
p5697
aVperfect
p5698
aVperfectionist
p5699
aVperform
p5700
aVperhap
p5701
aVperiod
p5702
aVperman
p5703
aVpermiss
p5704
aVpermit
p5705
aVpernici
p5706
aVperpetr
p5707
aVpers
p5708
aVpersecut
p5709
aVpersever
p5710
aVpersist
p5711
aVperson
p5712
aVpersonal-best
p5713
aVpersonnel
p5714
aVperspect
p5715
aVpersuad
p5716
aVperth
p5717
aVpertin
p5718
aVpervas
p5719
aVpervers
p5720
aVpessimist
p5721
aVpesticid
p5722
aVpet
p5723
aVpete
p5724
aVpeter
p5725
aVpeterborough
p5726
aVpeterhead
p5727
aVpetit
p5728
aVpetrifi
p5729
aVpetrol
p5730
aVpetrol-snif
p5731
aVpetrucci
p5732
aVpetul
p5733
aVpetya
p5734
aVpga
p5735
aVphaedra
p5736
aVphallic
p5737
aVpharma
p5738
aVpharma-quick-step
p5739
aVpharmaci
p5740
aVphase
p5741
aVphd
p5742
aVphenomen
p5743
aVphenomenon
p5744
aVphil
p5745
aVphilanthrop
p5746
aVphilanthropist
p5747
aVphilharmon
p5748
aVphilip
p5749
aVphilipp
p5750
aVphilippin
p5751
aVphillip
p5752
aVphish
p5753
aVphoenix
p5754
aVphone
p5755
aVphoto
p5756
aVphotograph
p5757
aVphotographi
p5758
aVphotovolta
p5759
aVphrase
p5760
aVphysic
p5761
aVphysicist
p5762
aVphysiolog
p5763
aVphysiotherapi
p5764
aVpi
p5765
aVpick
p5766
aVpicki
p5767
aVpickl
p5768
aVpictur
p5769
aVpicturesqu
p5770
aVpiec
p5771
aVpiecem
p5772
aVpierc
p5773
aVpieri
p5774
aVpigeon
p5775
aVpigeonhol
p5776
aVpiggi
p5777
aVpile
p5778
aVpilgrim
p5779
aVpilkington
p5780
aVpilot
p5781
aVpimento
p5782
aVpin
p5783
aVpin-point
p5784
aVpinch
p5785
aVpine
p5786
aVping
p5787
aVpinger
p5788
aVpinger-loc
p5789
aVpink
p5790
aVpinpoint
p5791
aVpinsent
p5792
aVpioneer
p5793
aVpipelin
p5794
aVpiraci
p5795
aVpiraeus
p5796
aVpirat
p5797
aVpisa
p5798
aVpistachio
p5799
aVpit
p5800
aVpitch
p5801
aVpitsuwan
p5802
aVpixi
p5803
aVpizza
p5804
aVpl
p5805
aVplace
p5806
aVplacement
p5807
aVplagu
p5808
aVplaid
p5809
aVplan
p5810
aVplane
p5811
aVplanet
p5812
aVplanner
p5813
aVplant
p5814
aVplantat
p5815
aVplantation-styl
p5816
aVplastic
p5817
aVplate
p5818
aVplateau
p5819
aVplatform
p5820
aVplatonova
p5821
aVplausibl
p5822
aVplay
p5823
aVplay-bas
p5824
aVplayer
p5825
aVplayground
p5826
aVplaygroup
p5827
aVplaywright
p5828
aVplea
p5829
aVplead
p5830
aVpleas
p5831
aVpleasanc
p5832
aVpleasant
p5833
aVpledg
p5834
aVplenti
p5835
aVplonk
p5836
aVplot
p5837
aVplug
p5838
aVplug-and-play
p5839
aVplumag
p5840
aVplummet
p5841
aVplung
p5842
aVplus
p5843
aVplymouth
p5844
aVplymouth-bas
p5845
aVpm
p5846
aVpms
p5847
aVpneumococc
p5848
aVpoacher
p5849
aVpocock
p5850
aVpodium
p5851
aVpoem
p5852
aVpoet
p5853
aVpogonophobia
p5854
aVpoint
p5855
aVpointer
p5856
aVpois
p5857
aVpoke
p5858
aVpoland
p5859
aVpolar
p5860
aVpolar-orbit
p5861
aVpole
p5862
aVpolic
p5863
aVpolicemen
p5864
aVpolici
p5865
aVpolicymak
p5866
aVpolish
p5867
aVpolit
p5868
aVpolitician
p5869
aVpoll
p5870
aVpollut
p5871
aVpolytechn
p5872
aVpompeii
p5873
aVpompidou
p5874
aVpond
p5875
aVponder
p5876
aVpool
p5877
aVpoor
p5878
aVpoorer
p5879
aVpoorest
p5880
aVpop
p5881
aVpop-up
p5882
aVpoppin
p5883
aVpopul
p5884
aVpopular
p5885
aVpopulus
p5886
aVpork
p5887
aVporn
p5888
aVpornographi
p5889
aVporous
p5890
aVporqu
p5891
aVport
p5892
aVportabl
p5893
aVporteous
p5894
aVportfolio
p5895
aVportillo
p5896
aVportion
p5897
aVportrait
p5898
aVportray
p5899
aVportsmouth
p5900
aVpose
p5901
aVposit
p5902
aVpossess
p5903
aVpossibl
p5904
aVpost
p5905
aVpost-
p5906
aVpost-big-bang
p5907
aVpost-impressionist
p5908
aVpost-iraq
p5909
aVpost-mortem
p5910
aVpost-pc
p5911
aVpost-transpl
p5912
aVpost-traumat
p5913
aVposter
p5914
aVpostgradu
p5915
aVpostpon
p5916
aVpot
p5917
aVpot-hol
p5918
aVpotent
p5919
aVpotenti
p5920
aVpotter
p5921
aVpotteri
p5922
aVpotting
p5923
aVpoulter
p5924
aVpounc
p5925
aVpound
p5926
aVpoverti
p5927
aVpower
p5928
aVpowerbas
p5929
aVpowerboat
p5930
aVpowerhous
p5931
aVpowersport
p5932
aVpoyri
p5933
aVpp
p5934
aVppa
p5935
aVppm
p5936
aVpr
p5937
aVpractic
p5938
aVpraefinium
p5939
aVprais
p5940
aVprayer
p5941
aVpre
p5942
aVpre-k
p5943
aVpre-kindergarten
p5944
aVpre-nat
p5945
aVpre-pay
p5946
aVpre-rac
p5947
aVpre-record
p5948
aVpre-school
p5949
aVpreach
p5950
aVpreacher
p5951
aVpreah
p5952
aVprecautionari
p5953
aVpreced
p5954
aVprecis
p5955
aVpreconcept
p5956
aVpredat
p5957
aVpredecessor
p5958
aVpredict
p5959
aVpredomin
p5960
aVpreemin
p5961
aVpreet
p5962
aVprefer
p5963
aVpregnanc
p5964
aVprejudic
p5965
aVpremier
p5966
aVpremiership
p5967
aVpremis
p5968
aVpremium
p5969
aVpreoccup
p5970
aVprepar
p5971
aVprepared
p5972
aVprescrib
p5973
aVprescript
p5974
aVpresenc
p5975
aVpresent
p5976
aVpresent-day
p5977
aVpreserv
p5978
aVpresid
p5979
aVpresidenti
p5980
aVpress
p5981
aVpressur
p5982
aVpressure-driven
p5983
aVpressuris
p5984
aVprestigi
p5985
aVpreston
p5986
aVpresum
p5987
aVpretend
p5988
aVpretenti
p5989
aVpretti
p5990
aVprevail
p5991
aVpreval
p5992
aVprevent
p5993
aVpreview
p5994
aVprevious
p5995
aVprey
p5996
aVprice
p5997
aVpride
p5998
aVprimari
p5999
aVprimarili
p6000
aVprime
p6001
aVprincip
p6002
aVprincipl
p6003
aVprint
p6004
aVprior
p6005
aVprioriti
p6006
aVprioritis
p6007
aVpriscah
p6008
aVprison
p6009
aVprivat
p6010
aVprivatis
p6011
aVpriveleg
p6012
aVprize
p6013
aVpro
p6014
aVpro-coal
p6015
aVpro-euro
p6016
aVpro-european
p6017
aVpro-pred
p6018
aVpro-rector
p6019
aVpro-russian
p6020
aVprobabl
p6021
aVprobat
p6022
aVprobe
p6023
aVproblem
p6024
aVprocedur
p6025
aVproceed
p6026
aVprocess
p6027
aVprocessor
p6028
aVproclaim
p6029
aVprocur
p6030
aVprodig
p6031
aVprodigi
p6032
aVproduc
p6033
aVproduct
p6034
aVprof
p6035
aVprofess
p6036
aVprofession
p6037
aVprofessionalis
p6038
aVprofessor
p6039
aVprofici
p6040
aVprofil
p6041
aVprofit
p6042
aVprofound
p6043
aVprognosi
p6044
aVprogram
p6045
aVprogramm
p6046
aVprogramme-mak
p6047
aVprogress
p6048
aVprohibit
p6049
aVproject
p6050
aVprolong
p6051
aVpromin
p6052
aVpromis
p6053
aVpromiscu
p6054
aVpromot
p6055
aVprompt
p6056
aVprone
p6057
aVprop
p6058
aVpropag
p6059
aVpropel
p6060
aVproper
p6061
aVproperti
p6062
aVproport
p6063
aVpropos
p6064
aVproschim
p6065
aVprose
p6066
aVprosecut
p6067
aVprosecutor
p6068
aVprospect
p6069
aVprosper
p6070
aVprostrat
p6071
aVprotect
p6072
aVprotein
p6073
aVprotest
p6074
aVprotocol
p6075
aVprototyp
p6076
aVproud
p6077
aVprove
p6078
aVproven
p6079
aVproverb
p6080
aVproverbi
p6081
aVprovid
p6082
aVprovinc
p6083
aVprovis
p6084
aVprovoc
p6085
aVprovodnikov
p6086
aVprovok
p6087
aVprowess
p6088
aVprowl
p6089
aVprs
p6090
aVprudent
p6091
aVpsaki
p6092
aVpsychiatrist
p6093
aVpsycholog
p6094
aVpsychometr
p6095
aVpsychosi
p6096
aVpsychotherapi
p6097
aVptsd
p6098
aVpub
p6099
aVpublic
p6100
aVpublicis
p6101
aVpublish
p6102
aVpuccini
p6103
aVpuff
p6104
aVpuffa
p6105
aVpuli
p6106
aVpull
p6107
aVpulp
p6108
aVpump
p6109
aVpunch
p6110
aVpuncheon
p6111
aVpunctuat
p6112
aVpundit
p6113
aVpunish
p6114
aVpunit
p6115
aVpunt
p6116
aVpup
p6117
aVpupil
p6118
aVpurchas
p6119
aVpure
p6120
aVpurg
p6121
aVpurgatori
p6122
aVpurifi
p6123
aVpurnima
p6124
aVpurpl
p6125
aVpurport
p6126
aVpurpos
p6127
aVpurs
p6128
aVpurse-str
p6129
aVpursu
p6130
aVpursuit
p6131
aVpush
p6132
aVput
p6133
aVputin
p6134
aVputney
p6135
aVputt
p6136
aVpuzzl
p6137
aVpv
p6138
aVpyjama
p6139
aVq
p6140
aVqatar
p6141
aVqc
p6142
aVqiao
p6143
aVqts
p6144
aVquad
p6145
aVquadrupl
p6146
aVqualif
p6147
aVqualifi
p6148
aVqualiti
p6149
aVqualm
p6150
aVquango
p6151
aVquantit
p6152
aVquantiti
p6153
aVquarri
p6154
aVquarter
p6155
aVquarter-fin
p6156
aVquartet
p6157
aVquasar
p6158
aVquash
p6159
aVqueasi
p6160
aVqueen
p6161
aVqueensland
p6162
aVquest
p6163
aVquestion
p6164
aVquestionnair
p6165
aVqueue
p6166
aVquick
p6167
aVquick-fir
p6168
aVquick-step
p6169
aVquick-temp
p6170
aVquicker
p6171
aVquickest
p6172
aVquicksand
p6173
aVquiet
p6174
aVquieter
p6175
aVquietest
p6176
aVquiller
p6177
aVquilt
p6178
aVquintessenti
p6179
aVquit
p6180
aVquiz
p6181
aVquot
p6182
aVrabat
p6183
aVrabbit
p6184
aVrabbit-own
p6185
aVrace
p6186
aVracer
p6187
aVrachael
p6188
aVrachel
p6189
aVracial
p6190
aVracist
p6191
aVrack
p6192
aVracket
p6193
aVradar
p6194
aVradcliff
p6195
aVradic
p6196
aVradio
p6197
aVradioact
p6198
aVradiohead
p6199
aVradoslaw
p6200
aVrae
p6201
aVraeng
p6202
aVraffl
p6203
aVraft
p6204
aVraheem
p6205
aVraid
p6206
aVrail
p6207
aVrailway
p6208
aVrain
p6209
aVrain-ruin
p6210
aVrainfal
p6211
aVrainforest
p6212
aVrais
p6213
aVraisanen
p6214
aVrajendra
p6215
aVramp
p6216
aVrampag
p6217
aVran
p6218
aVrang
p6219
aVranger
p6220
aVrangoon
p6221
aVrank
p6222
aVrankin
p6223
aVrape
p6224
aVrapid
p6225
aVrapid-respons
p6226
aVrapport
p6227
aVrare
p6228
aVrariti
p6229
aVrash
p6230
aVraspberri
p6231
aVrat
p6232
aVrate
p6233
aVrather
p6234
aVratio
p6235
aVration
p6236
aVrattl
p6237
aVraucous
p6238
aVraw
p6239
aVray
p6240
aVraymond
p6241
aVrazor
p6242
aVrd
p6243
aVre
p6244
aVre-creat
p6245
aVre-emerg
p6246
aVre-emphasis
p6247
aVre-examin
p6248
aVre-learn
p6249
aVre-open
p6250
aVre-oxygen
p6251
aVre-program
p6252
aVre-wild
p6253
aVre-writ
p6254
aVreach
p6255
aVreachabl
p6256
aVreact
p6257
aVreaction
p6258
aVread
p6259
aVreader
p6260
aVreadi
p6261
aVready-mad
p6262
aVreal
p6263
aVreal-lif
p6264
aVreal-tim
p6265
aVrealis
p6266
aVrealist
p6267
aVrealiti
p6268
aVrealli
p6269
aVrealtor
p6270
aVrear
p6271
aVrearrang
p6272
aVreason
p6273
aVreassur
p6274
aVrebalanc
p6275
aVrebecca
p6276
aVrebel
p6277
aVrebound
p6278
aVrebuild
p6279
aVrebuilt
p6280
aVrecal
p6281
aVreceipt
p6282
aVreceiv
p6283
aVrecent
p6284
aVrecept
p6285
aVrecess
p6286
aVrecip
p6287
aVrecipi
p6288
aVreckon
p6289
aVreclaim
p6290
aVreclin
p6291
aVrecognis
p6292
aVrecognit
p6293
aVrecommend
p6294
aVreconcil
p6295
aVreconcili
p6296
aVreconnect
p6297
aVreconstruct
p6298
aVrecord
p6299
aVrecord-break
p6300
aVrecov
p6301
aVrecoveri
p6302
aVrecruit
p6303
aVred
p6304
aVredefin
p6305
aVredempt
p6306
aVredesign
p6307
aVredford
p6308
aVredirect
p6309
aVrediscoveri
p6310
aVredrawn
p6311
aVredress
p6312
aVredskin
p6313
aVreduc
p6314
aVreduct
p6315
aVreed
p6316
aVreel
p6317
aVreev
p6318
aVref
p6319
aVrefer
p6320
aVrefere
p6321
aVreferendum
p6322
aVreferr
p6323
aVrefin
p6324
aVrefinanc
p6325
aVreflect
p6326
aVreforest
p6327
aVreform
p6328
aVrefrain
p6329
aVrefresh
p6330
aVrefuge
p6331
aVrefurbish
p6332
aVrefus
p6333
aVregain
p6334
aVregard
p6335
aVregardless
p6336
aVregen
p6337
aVregener
p6338
aVregim
p6339
aVregiment
p6340
aVregion
p6341
aVregist
p6342
aVregret
p6343
aVregrett
p6344
aVregul
p6345
aVregular
p6346
aVregulatori
p6347
aVrehabilit
p6348
aVrehears
p6349
aVreid
p6350
aVreign
p6351
aVreinforc
p6352
aVreintroduc
p6353
aVreinvent
p6354
aVreiter
p6355
aVreitman
p6356
aVreject
p6357
aVrejoic
p6358
aVrejuven
p6359
aVrel
p6360
aVrelat
p6361
aVrelationship
p6362
aVrelax
p6363
aVrelay
p6364
aVreleas
p6365
aVreleg
p6366
aVrelentless
p6367
aVrelev
p6368
aVreli
p6369
aVreliabl
p6370
aVrelianc
p6371
aVrelic
p6372
aVrelief
p6373
aVreligi
p6374
aVreligion
p6375
aVrelish
p6376
aVreloc
p6377
aVreluct
p6378
aVremain
p6379
aVremark
p6380
aVremarri
p6381
aVrematch
p6382
aVremedi
p6383
aVrememb
p6384
aVremembr
p6385
aVremind
p6386
aVreminisc
p6387
aVremix
p6388
aVremora-typ
p6389
aVremortgag
p6390
aVremot
p6391
aVremov
p6392
aVremus
p6393
aVrenal
p6394
aVrenam
p6395
aVrender
p6396
aVrenegoti
p6397
aVrenew
p6398
aVrenewableuk
p6399
aVrenown
p6400
aVrent
p6401
aVreopen
p6402
aVreorganis
p6403
aVrepaid
p6404
aVrepair
p6405
aVrepay
p6406
aVrepeal
p6407
aVrepeat
p6408
aVrepel
p6409
aVrepetit
p6410
aVreplac
p6411
aVreplay
p6412
aVreplenish
p6413
aVrepli
p6414
aVreplic
p6415
aVreport
p6416
aVrepres
p6417
aVrepresent
p6418
aVrepress
p6419
aVreprimand
p6420
aVrepris
p6421
aVreproduct
p6422
aVrepubl
p6423
aVrepublican
p6424
aVrepublish
p6425
aVreput
p6426
aVrequest
p6427
aVrequir
p6428
aVrescu
p6429
aVresearch
p6430
aVresembl
p6431
aVresent
p6432
aVreserv
p6433
aVreset
p6434
aVreshuffl
p6435
aVresid
p6436
aVresidenti
p6437
aVresign
p6438
aVresili
p6439
aVresist
p6440
aVresolut
p6441
aVresolv
p6442
aVreson
p6443
aVresort
p6444
aVresound
p6445
aVresourc
p6446
aVrespect
p6447
aVrespiratori
p6448
aVrespit
p6449
aVrespond
p6450
aVrespons
p6451
aVrest
p6452
aVrestart
p6453
aVrestaur
p6454
aVrestaurant-go
p6455
aVrestitut
p6456
aVrestor
p6457
aVrestraint
p6458
aVrestrict
p6459
aVresult
p6460
aVresum
p6461
aVretail
p6462
aVretain
p6463
aVretel
p6464
aVrethink
p6465
aVretir
p6466
aVretrain
p6467
aVretreat
p6468
aVretriev
p6469
aVretrofit
p6470
aVretrospect
p6471
aVretun
p6472
aVreturn
p6473
aVreunit
p6474
aVreuter
p6475
aVreveal
p6476
aVrevel
p6477
aVrevenu
p6478
aVrever
p6479
aVreverber
p6480
aVrevers
p6481
aVreview
p6482
aVrevis
p6483
aVrevisit
p6484
aVrevitalis
p6485
aVreviv
p6486
aVrevolut
p6487
aVrevolutionari
p6488
aVrevolutionis
p6489
aVreward
p6490
aVrewrit
p6491
aVrey
p6492
aVrezza
p6493
aVrhapsodi
p6494
aVrharrabin
p6495
aVrhetor
p6496
aVrhode
p6497
aVrib
p6498
aVribbl
p6499
aVribi
p6500
aVric
p6501
aVrice
p6502
aVrich
p6503
aVrichard
p6504
aVricher
p6505
aVrichest
p6506
aVrichtaylorbbc
p6507
aVrick
p6508
aVrickaaaay
p6509
aVricki
p6510
aVrid
p6511
aVriddl
p6512
aVride
p6513
aVrider
p6514
aVridicul
p6515
aVrife
p6516
aVrifl
p6517
aVrig
p6518
aVright
p6519
aVright-w
p6520
aVright-wing
p6521
aVrigor
p6522
aVrigour
p6523
aVring
p6524
aVrio
p6525
aVriotous
p6526
aVripe
p6527
aVrippl
p6528
aVrise
p6529
aVrisen
p6530
aVrisk
p6531
aVriski
p6532
aVrisotto
p6533
aVrite
p6534
aVritual
p6535
aVrival
p6536
aVrivalri
p6537
aVroach
p6538
aVroad
p6539
aVroad-rac
p6540
aVroam
p6541
aVroar
p6542
aVroast
p6543
aVrob
p6544
aVrobb
p6545
aVrobber
p6546
aVrobberi
p6547
aVrobbi
p6548
aVrobert
p6549
aVroberto
p6550
aVrobertson
p6551
aVrobi
p6552
aVrobin
p6553
aVrobinson
p6554
aVrobison
p6555
aVroboclam
p6556
aVrobot
p6557
aVroboticist
p6558
aVrobson
p6559
aVrobust
p6560
aVrochdal
p6561
aVrock
p6562
aVrocket
p6563
aVrocki
p6564
aVrodent
p6565
aVrodger
p6566
aVroger
p6567
aVrogu
p6568
aVrole
p6569
aVrole-model
p6570
aVroll
p6571
aVroll-out
p6572
aVrollercoaster-lik
p6573
aVrollout
p6574
aVroman
p6575
aVromanc
p6576
aVromanian
p6577
aVromero
p6578
aVron
p6579
aVroof
p6580
aVrooftop
p6581
aVroom
p6582
aVroost
p6583
aVroot
p6584
aVrope
p6585
aVrori
p6586
aVrosch
p6587
aVrose
p6588
aVrosi
p6589
aVross
p6590
aVrossi
p6591
aVrot
p6592
aVrotat
p6593
aVrothenberg
p6594
aVrotten
p6595
aVroubaix
p6596
aVrough
p6597
aVround
p6598
aVround-up
p6599
aVround-wreck
p6600
aVrourk
p6601
aVrout
p6602
aVrouter
p6603
aVroutin
p6604
aVrov
p6605
aVrove
p6606
aVrow
p6607
aVrowl
p6608
aVrowley
p6609
aVrowsel
p6610
aVroyal
p6611
aVroyalist
p6612
aVroyalti
p6613
aVrsc
p6614
aVrt
p6615
aVru
p6616
aVrubasingham
p6617
aVrubinsohn
p6618
aVrucksack
p6619
aVrude
p6620
aVrudg
p6621
aVrue
p6622
aVruffl
p6623
aVrug
p6624
aVrugbi
p6625
aVrugunda
p6626
aVruhakana
p6627
aVruin
p6628
aVrule
p6629
aVruler
p6630
aVrumour
p6631
aVrun
p6632
aVrun-in
p6633
aVrun-up
p6634
aVrunner
p6635
aVrunner-up
p6636
aVrunni
p6637
aVrunnymed
p6638
aVrunway
p6639
aVrupert
p6640
aVrural
p6641
aVrush
p6642
aVrush-hour
p6643
aVruslan
p6644
aVrussel
p6645
aVrussia
p6646
aVrussian
p6647
aVrussian-speak
p6648
aVrutger
p6649
aVryan
p6650
aVryder
p6651
aVsaber
p6652
aVsabina
p6653
aVsabrina
p6654
aVsac
p6655
aVsack
p6656
aVsacrific
p6657
aVsad
p6658
aVsadi
p6659
aVsaeed
p6660
aVsafe
p6661
aVsafeguard
p6662
aVsafer
p6663
aVsafeti
p6664
aVsahara
p6665
aVsaid
p6666
aVsail
p6667
aVsaint
p6668
aVsajid
p6669
aVsajiv
p6670
aVsake
p6671
aVsalad
p6672
aVsalari
p6673
aVsalazar
p6674
aVsale
p6675
aVsaleroom
p6676
aVsalford
p6677
aVsaliva
p6678
aVsalli
p6679
aVsalmond
p6680
aVsaloon
p6681
aVsalt
p6682
aVsalti
p6683
aVsalut
p6684
aVsam
p6685
aVsamir
p6686
aVsammi
p6687
aVsampl
p6688
aVsamsung
p6689
aVsan
p6690
aVsanction
p6691
aVsand
p6692
aVsandford
p6693
aVsandi
p6694
aVsandieson
p6695
aVsandwich
p6696
aVsanford
p6697
aVsanghera
p6698
aVsank
p6699
aVsantiago
p6700
aVsara
p6701
aVsaracen
p6702
aVsarah
p6703
aVsat
p6704
aVsat-nav
p6705
aVsatellit
p6706
aVsatellite-navig
p6707
aVsatir
p6708
aVsatisfact
p6709
aVsatisfi
p6710
aVsatur
p6711
aVsaturday
p6712
aVsaturn
p6713
aVsauc
p6714
aVsaucepan
p6715
aVsaudi
p6716
aVsaunder
p6717
aVsavag
p6718
aVsave
p6719
aVsaver
p6720
aVsavil
p6721
aVsaviok
p6722
aVsaviour
p6723
aVsaw
p6724
aVsay
p6725
aVscaffold
p6726
aVscale
p6727
aVscale-out
p6728
aVscalloped-edg
p6729
aVscalp
p6730
aVscan
p6731
aVscandal
p6732
aVscanner
p6733
aVscapegoat
p6734
aVscare
p6735
aVscarv
p6736
aVscath
p6737
aVscatter
p6738
aVscenario
p6739
aVscene
p6740
aVscent
p6741
aVsceptic
p6742
aVschaeubl
p6743
aVschedul
p6744
aVscheme
p6745
aVschizophrenia
p6746
aVschleicher
p6747
aVschneider
p6748
aVschneier
p6749
aVscholar
p6750
aVscholarship
p6751
aVschool
p6752
aVschool-bas
p6753
aVschool-l
p6754
aVschoolboy
p6755
aVschoolchildren
p6756
aVschoolday
p6757
aVschulz-hopfn
p6758
aVschwartzel
p6759
aVschwarzenneg
p6760
aVsci-fi
p6761
aVscienc
p6762
aVscience-bas
p6763
aVscientif
p6764
aVscientist
p6765
aVscoop
p6766
aVscope
p6767
aVscore
p6768
aVscoreboard
p6769
aVscorer
p6770
aVscot
p6771
aVscotch
p6772
aVscotland
p6773
aVscotrail
p6774
aVscott
p6775
aVscottish
p6776
aVscottish-train
p6777
aVscrambl
p6778
aVscrap
p6779
aVscrape
p6780
aVscratch
p6781
aVscreen
p6782
aVscript
p6783
aVscruffi
p6784
aVscuba
p6785
aVscuf
p6786
aVscum
p6787
aVscuttl
p6788
aVsderot
p6789
aVsdp
p6790
aVsds
p6791
aVsea
p6792
aVsea-ic
p6793
aVsea-level
p6794
aVseab
p6795
aVseafloor
p6796
aVseafood
p6797
aVseam
p6798
aVseamless
p6799
aVseamount
p6800
aVsearch
p6801
aVseason
p6802
aVseason-ticket
p6803
aVseat
p6804
aVseat-sav
p6805
aVseater
p6806
aVseattl
p6807
aVsec
p6808
aVseclus
p6809
aVsecond
p6810
aVsecond-half
p6811
aVsecond-plac
p6812
aVsecond-row
p6813
aVsecondari
p6814
aVsecreci
p6815
aVsecret
p6816
aVsecretari
p6817
aVsecretary-gener
p6818
aVsect
p6819
aVsection
p6820
aVsector
p6821
aVsecur
p6822
aVsecurity-relev
p6823
aVsee
p6824
aVseed
p6825
aVseedr
p6826
aVseek
p6827
aVseeker
p6828
aVseem
p6829
aVseen
p6830
aVseggelman
p6831
aVsegment
p6832
aVseismic
p6833
aVseiz
p6834
aVselect
p6835
aVself
p6836
aVself-assembl
p6837
aVself-author
p6838
aVself-belief
p6839
aVself-consci
p6840
aVself-contain
p6841
aVself-control
p6842
aVself-deprec
p6843
aVself-describ
p6844
aVself-driv
p6845
aVself-employ
p6846
aVself-identifi
p6847
aVself-imag
p6848
aVself-mad
p6849
aVself-organis
p6850
aVself-portrait
p6851
aVself-reli
p6852
aVself-rul
p6853
aVself-sign
p6854
aVself-sustain
p6855
aVself-tan
p6856
aVself-taught
p6857
aVselfi
p6858
aVsell
p6859
aVsell-bi
p6860
aVseller
p6861
aVsemen
p6862
aVsemi-fin
p6863
aVsemi-profession
p6864
aVsemin
p6865
aVsenat
p6866
aVsend
p6867
aVsenden
p6868
aVsenior
p6869
aVsens
p6870
aVsensat
p6871
aVsensibl
p6872
aVsensit
p6873
aVsensor
p6874
aVsent
p6875
aVsentenc
p6876
aVsentinel
p6877
aVsentinel-a
p6878
aVsentinel-b
p6879
aVsentinel-them
p6880
aVseoul
p6881
aVsep
p6882
aVsepar
p6883
aVseparatist
p6884
aVseptemb
p6885
aVsequel
p6886
aVsequenc
p6887
aVseren
p6888
aVsergio
p6889
aVseri
p6890
aVserious
p6891
aVserv
p6892
aVservant
p6893
aVserver
p6894
aVservic
p6895
aVservicemen
p6896
aVsession
p6897
aVset
p6898
aVset-piec
p6899
aVsettl
p6900
aVsettlement
p6901
aVsetup
p6902
aVsevastopol
p6903
aVseven
p6904
aVseven-strong
p6905
aVseventh
p6906
aVsever
p6907
aVsewag
p6908
aVsewer
p6909
aVsex
p6910
aVsexminst
p6911
aVsexual
p6912
aVsg
p6913
aVshaaiq
p6914
aVshabana
p6915
aVshackel
p6916
aVshade
p6917
aVshadow
p6918
aVshadowi
p6919
aVshake
p6920
aVshake-up
p6921
aVshakeout
p6922
aVshaker
p6923
aVshakespear
p6924
aVshakhtar
p6925
aVshale
p6926
aVshall
p6927
aVshallow
p6928
aVshambl
p6929
aVshame
p6930
aVshampoo
p6931
aVshane
p6932
aVshanghai
p6933
aVshape
p6934
aVshapp
p6935
aVsharanjit
p6936
aVshare
p6937
aVsharehold
p6938
aVsharia
p6939
aVshark
p6940
aVsharp
p6941
aVsharpen
p6942
aVsharpl
p6943
aVsharpli
p6944
aVshatter
p6945
aVshave
p6946
aVshawshank
p6947
aVshearer
p6948
aVshed
p6949
aVsheep
p6950
aVsheer
p6951
aVsheeran
p6952
aVsheet
p6953
aVsheff
p6954
aVsheffield
p6955
aVsheikh
p6956
aVshell
p6957
aVshenton
p6958
aVshepherd
p6959
aVsherlock
p6960
aVsherratt
p6961
aVshes
p6962
aVshetland
p6963
aVshi
p6964
aVshiel
p6965
aVshield
p6966
aVshift
p6967
aVshillinglaw
p6968
aVshindig
p6969
aVshine
p6970
aVship
p6971
aVshirt
p6972
aVshock
p6973
aVshoe
p6974
aVshoestr
p6975
aVshona
p6976
aVshoot
p6977
aVshoot-out
p6978
aVshop
p6979
aVshore
p6980
aVshort
p6981
aVshort-term
p6982
aVshortag
p6983
aVshorter
p6984
aVshot
p6985
aVshotgun
p6986
aVshotton
p6987
aVshoulder
p6988
aVshouldnt
p6989
aVshout
p6990
aVshow
p6991
aVshowcas
p6992
aVshowdown
p6993
aVshown
p6994
aVshropshir
p6995
aVshrunk
p6996
aVshrunken
p6997
aVshtokvych
p6998
aVshuffl
p6999
aVshukman
p7000
aVshun
p7001
aVshunt
p7002
aVshut
p7003
aVshutdown
p7004
aVsia
p7005
aVsibl
p7006
aVsick
p7007
aVsid
p7008
aVside
p7009
aVside-by-sid
p7010
aVside-scann
p7011
aVside-sonar
p7012
aVside-step
p7013
aVsideway
p7014
aVsierra
p7015
aVsigh
p7016
aVsight
p7017
aVsigma
p7018
aVsign
p7019
aVsignal
p7020
aVsignatur
p7021
aVsignific
p7022
aVsilenc
p7023
aVsilent
p7024
aVsilhouett
p7025
aVsilicon
p7026
aVsilli
p7027
aVsilt
p7028
aVsilva
p7029
aVsilver
p7030
aVsilvologist
p7031
aVsimblet
p7032
aVsimeon
p7033
aVsimilar
p7034
aVsimmond
p7035
aVsimon
p7036
aVsimonsen
p7037
aVsimpl
p7038
aVsimpler
p7039
aVsimplest
p7040
aVsimpli
p7041
aVsimplic
p7042
aVsimplifi
p7043
aVsimul
p7044
aVsimultan
p7045
aVsinc
p7046
aVsincer
p7047
aVsindh
p7048
aVsing
p7049
aVsingapor
p7050
aVsingaporean
p7051
aVsinger
p7052
aVsingl
p7053
aVsinist
p7054
aVsink
p7055
aVsinn
p7056
aVsinnamari
p7057
aVsiobhan-mari
p7058
aVsir
p7059
aVsire
p7060
aVsiren
p7061
aVsister
p7062
aVsit
p7063
aVsite
p7064
aVsituat
p7065
aVsix
p7066
aVsix-cylind
p7067
aVsix-figur
p7068
aVsix-month
p7069
aVsix-tim
p7070
aVsix-year
p7071
aVsixth
p7072
aVsixty-seven
p7073
aVsize
p7074
aVsizeabl
p7075
aVsketch
p7076
aVskewer
p7077
aVski
p7078
aVskill
p7079
aVskin
p7080
aVskipper
p7081
aVskirmish
p7082
aVskirt
p7083
aS'sky'
p7084
aVskyfal
p7085
aVskys
p7086
aVskyscrap
p7087
aVslash
p7088
aVslater
p7089
aVsleep
p7090
aVsleep-induc
p7091
aVsleeper
p7092
aVsleepov
p7093
aVsleepwalk
p7094
aVslicker
p7095
aVslid
p7096
aVslide
p7097
aVslideshow
p7098
aVslight
p7099
aVslim
p7100
aVslimmer
p7101
aVslip
p7102
aVslipstream
p7103
aVsliver
p7104
aVslogan
p7105
aVslope
p7106
aVslopestyl
p7107
aVslot
p7108
aVslovakia
p7109
aVslow
p7110
aVslow-mov
p7111
aVslowdown
p7112
aVslower
p7113
aVslowest
p7114
aVslowli
p7115
aVslump
p7116
aVsmall
p7117
aVsmall-scal
p7118
aVsmaller
p7119
aVsmart
p7120
aVsmartphon
p7121
aVsmartwatch
p7122
aVsmash
p7123
aVsmell
p7124
aVsmes
p7125
aVsmile
p7126
aVsmith
p7127
aVsmithfield
p7128
aVsmooth
p7129
aVsnack
p7130
aVsnake
p7131
aVsnakehead
p7132
aVsnap
p7133
aVsnap-shot
p7134
aVsnappi
p7135
aVsnapshot
p7136
aVsnare
p7137
aVsnatch
p7138
aVsnead
p7139
aVsneak
p7140
aVsneyd
p7141
aVsnooker
p7142
aVsnow
p7143
aVsnow-cov
p7144
aVsnp
p7145
aVso-cal
p7146
aVso-so
p7147
aVsoak
p7148
aVsoap
p7149
aVsoar
p7150
aVsociabl
p7151
aVsocial
p7152
aVsocieti
p7153
aVsociolog
p7154
aVsock
p7155
aVsocket
p7156
aVsoft
p7157
aVsoftwar
p7158
aVsoil
p7159
aVsolar
p7160
aVsolar-driven
p7161
aVsolar-pow
p7162
aVsold
p7163
aVsoldier
p7164
aVsolicitor
p7165
aVsolid
p7166
aVsolidar
p7167
aVsoliola
p7168
aVsolo
p7169
aVsolomon
p7170
aVsolut
p7171
aVsolv
p7172
aVsomalia
p7173
aVsomebodi
p7174
aVsomehow
p7175
aVsomeon
p7176
aVsomerfield
p7177
aVsomerset
p7178
aVsometh
p7179
aVsomething-has-to-be-don
p7180
aVsometim
p7181
aVsomewhat
p7182
aVsomewher
p7183
aVsomo
p7184
aVson
p7185
aVsonar
p7186
aVsong
p7187
aVsongwrit
p7188
aVsoon
p7189
aVsooner
p7190
aVsophi
p7191
aVsophist
p7192
aVsoprano
p7193
aVsore
p7194
aVsoro
p7195
aVsorri
p7196
aVsort
p7197
aVsought
p7198
aVsoul
p7199
aVsound
p7200
aVsoundbit
p7201
aVsounder
p7202
aVsoup
p7203
aVsour
p7204
aVsourc
p7205
aVsouth
p7206
aVsouth-east
p7207
aVsouth-eastern
p7208
aVsouth-west
p7209
aVsouthal
p7210
aVsouthampton
p7211
aVsoutheast
p7212
aVsouthern
p7213
aVsouthern-bas
p7214
aVsouthwest
p7215
aVsovereignti
p7216
aVsow
p7217
aVsoyuz
p7218
aVspace
p7219
aVspace-born
p7220
aVspace-debri
p7221
aVspacecraft
p7222
aVspain
p7223
aVspanish
p7224
aVspare
p7225
aVspark
p7226
aVsparsely-popul
p7227
aVspat
p7228
aVspate
p7229
aVspeak
p7230
aVspeaker
p7231
aVspear
p7232
aVspearhead
p7233
aVspec
p7234
aVspeci
p7235
aVspecial
p7236
aVspecialis
p7237
aVspecialist
p7238
aVspecially-adapt
p7239
aVspecies-rich
p7240
aVspecif
p7241
aVspecimen
p7242
aVspectacl
p7243
aVspectacular
p7244
aVspectat
p7245
aVspectrum
p7246
aVspecul
p7247
aVspeech
p7248
aVspeechwrit
p7249
aVspeed
p7250
aVspeed-walk
p7251
aVspeedi
p7252
aVspell
p7253
aVspend
p7254
aVspent
p7255
aVsperoni
p7256
aVspew
p7257
aVsphere
p7258
aVspi
p7259
aVspici
p7260
aVspider
p7261
aVspider-man
p7262
aVspieth
p7263
aVspike
p7264
aVspill
p7265
aVspin
p7266
aVspin-off
p7267
aVspinner
p7268
aVspiral
p7269
aVspire
p7270
aVspirit
p7271
aVspiritu
p7272
aVspittl
p7273
aVsplash
p7274
aVsplendour
p7275
aVsplit
p7276
aVsplit-second
p7277
aVspoke
p7278
aVspoken
p7279
aVspokesman
p7280
aVspokesperson
p7281
aVspokeswoman
p7282
aVsponsor
p7283
aVspontan
p7284
aVspook
p7285
aVspoonbil
p7286
aVsporad
p7287
aVsport
p7288
aVsportswrit
p7289
aVspot
p7290
aVspotlight
p7291
aVsprat
p7292
aVspread
p7293
aVspring
p7294
aVspringboard
p7295
aVspringi
p7296
aVspringwatch
p7297
aVsprinkl
p7298
aVsprinkler
p7299
aVsprint
p7300
aVsprinter
p7301
aVsprout
p7302
aVsprung
p7303
aVspud
p7304
aVspur
p7305
aVspurn
p7306
aVsq
p7307
aVsquad
p7308
aVsquar
p7309
aVsquash
p7310
aVsqueez
p7311
aVss
p7312
aVssl
p7313
aVst
p7314
aVstabil
p7315
aVstabilis
p7316
aVstabl
p7317
aVstacey
p7318
aVstadia
p7319
aVstadium
p7320
aVstaf
p7321
aVstaff
p7322
aVstag
p7323
aVstage
p7324
aVstagger
p7325
aVstagnat
p7326
aVstainless
p7327
aVstaircas
p7328
aVstake
p7329
aVstakehold
p7330
aVstalin
p7331
aVstalk
p7332
aVstall
p7333
aVstallon
p7334
aVstamford
p7335
aVstamp
p7336
aVstan
p7337
aVstanc
p7338
aVstand
p7339
aVstand-alon
p7340
aVstandard
p7341
aVstanford
p7342
aVstanisla
p7343
aVstanleywho
p7344
aVstapl
p7345
aVstar
p7346
aVstar-struck
p7347
aVstargaz
p7348
aVstark
p7349
aVstart
p7350
aVstart-up
p7351
aVstarter
p7352
aVstartl
p7353
aVstartup
p7354
aVstat
p7355
aVstate
p7356
aVstate-control
p7357
aVstate-fund
p7358
aVstate-of-the-art
p7359
aVstate-own
p7360
aVstate-sponsor
p7361
aVstatehood
p7362
aVstatement
p7363
aVstation
p7364
aVstationari
p7365
aVstatist
p7366
aVstatus
p7367
aVstatut
p7368
aVstatutori
p7369
aVstaunch
p7370
aVstavang
p7371
aVstay
p7372
aVstayt
p7373
aVsteadili
p7374
aVsteadman
p7375
aVsteadycam
p7376
aVsteak
p7377
aVsteal
p7378
aVsteam
p7379
aVsteamrol
p7380
aVsteel
p7381
aVsteep
p7382
aVsteeplechas
p7383
aVsteepli
p7384
aVsteer
p7385
aVsteinberg
p7386
aVstella
p7387
aVstellar
p7388
aVstem
p7389
aVstenhousemuir
p7390
aVstep
p7391
aVstep-rel
p7392
aVstepfath
p7393
aVstephani
p7394
aVstephen
p7395
aVstepmoth
p7396
aVstepto
p7397
aVsterl
p7398
aVsteroid
p7399
aVsteve
p7400
aVsteven
p7401
aVsteward
p7402
aVstewardship
p7403
aVstick
p7404
aVstiffen
p7405
aVstigma
p7406
aVstigmatis
p7407
aVstill
p7408
aVstimul
p7409
aVstimuli
p7410
aVstimulus
p7411
aVsting
p7412
aVstingray
p7413
aVstir
p7414
aVstirl
p7415
aVstirlingshir
p7416
aVstitch
p7417
aVstock
p7418
aVstockholm
p7419
aVstockpil
p7420
aVstoke
p7421
aVstole
p7422
aVstolen
p7423
aVstomach
p7424
aVstone
p7425
aVstood
p7426
aVstop
p7427
aVstoppag
p7428
aVstopsley
p7429
aVstorag
p7430
aVstore
p7431
aVstoredot
p7432
aVstorey
p7433
aVstori
p7434
aVstorm
p7435
aVstraight
p7436
aVstrain
p7437
aVstrand
p7438
aVstrang
p7439
aVstranger
p7440
aVstrangl
p7441
aVstrateg
p7442
aVstrategi
p7443
aVstratford
p7444
aVstratford-upon-avon
p7445
aVstrathclyd
p7446
aVstrathspey
p7447
aVstravino
p7448
aVstray
p7449
aVstreak
p7450
aVstream
p7451
aVstreamlin
p7452
aVstreet
p7453
aVstrength
p7454
aVstrengthen
p7455
aVstrenuous
p7456
aVstress
p7457
aVstressor
p7458
aVstretch
p7459
aVstricken
p7460
aVstrict
p7461
aVstrict-liabl
p7462
aVstricter
p7463
aVstride
p7464
aVstrike
p7465
aVstriker
p7466
aVstring
p7467
aVstringent
p7468
aVstringer
p7469
aVstrip
p7470
aVstrive
p7471
aVstroke
p7472
aVstroll
p7473
aVstrong
p7474
aVstronger
p7475
aVstrongest
p7476
aVstruck
p7477
aVstructur
p7478
aVstruggl
p7479
aVstrung
p7480
aVstuart
p7481
aVstub
p7482
aVstuck
p7483
aVstudent
p7484
aVstudi
p7485
aVstudio
p7486
aVstuf
p7487
aVstuff
p7488
aVstumbl
p7489
aVstump
p7490
aVstun
p7491
aVstung
p7492
aVstunt
p7493
aVsturdi
p7494
aVsturridg
p7495
aVstyle
p7496
aVsuarez
p7497
aVsub
p7498
aVsub-on
p7499
aVsub-saharan
p7500
aVsub-titl
p7501
aVsubject
p7502
aVsubjug
p7503
aVsubmarin
p7504
aVsubmers
p7505
aVsubmiss
p7506
aVsubmit
p7507
aVsubscrib
p7508
aVsubsequ
p7509
aVsubsid
p7510
aVsubsidi
p7511
aVsubsidiari
p7512
aVsubsidis
p7513
aVsubstanc
p7514
aVsubstanti
p7515
aVsubstitut
p7516
aVsubterranean
p7517
aVsubtl
p7518
aVsubtleti
p7519
aVsuburb
p7520
aVsucceed
p7521
aVsuccess
p7522
aVsuccessor
p7523
aVsuccinct
p7524
aVsuccumb
p7525
aVsuck
p7526
aVsudden
p7527
aVsudeiki
p7528
aVsue
p7529
aVsued
p7530
aVsuffer
p7531
aVsuffici
p7532
aVsuffragett
p7533
aVsugar
p7534
aVsugarsaltartifici
p7535
aVsuggest
p7536
aVsui
p7537
aVsuicid
p7538
aVsuit
p7539
aVsuit-and-ti
p7540
aVsuitabl
p7541
aVsullivan
p7542
aVsum
p7543
aVsummari
p7544
aVsummer
p7545
aVsummerhay
p7546
aVsummit
p7547
aVsumptuous
p7548
aVsun
p7549
aVsunday
p7550
aVsunderland
p7551
aVsunlight
p7552
aVsunni
p7553
aVsunshin
p7554
aVsuper
p7555
aVsuper-connect
p7556
aVsuper-flatt
p7557
aVsuper-hero
p7558
aVsuper-middleweight
p7559
aVsupergrass
p7560
aVsuperhero
p7561
aVsuperintend
p7562
aVsuperior
p7563
aVsupermarch
p7564
aVsupermarket
p7565
aVsuperstar
p7566
aVsupper
p7567
aVsuppli
p7568
aVsupplier
p7569
aVsupport
p7570
aVsuppos
p7571
aVsuppress
p7572
aVsuprem
p7573
aVsure
p7574
aVsure-fir
p7575
aVsurf
p7576
aVsurfac
p7577
aVsurfer
p7578
aVsurg
p7579
aVsurgeon
p7580
aVsurgic
p7581
aVsurin
p7582
aVsurplus
p7583
aVsurpris
p7584
aVsurrey
p7585
aVsurround
p7586
aVsurvat
p7587
aVsurvey
p7588
aVsurveyor
p7589
aVsurviv
p7590
aVsurvivor
p7591
aVsusanna
p7592
aVsuscept
p7593
aVsuspect
p7594
aVsuspend
p7595
aVsuspens
p7596
aVsuspici
p7597
aVsuspicion
p7598
aVsustain
p7599
aVsutherland
p7600
aVsutton
p7601
aVsuu
p7602
aVswa
p7603
aVswag
p7604
aVswamp
p7605
aVswampi
p7606
aVswansea
p7607
aVswap
p7608
aVswas
p7609
aVswat
p7610
aVswath
p7611
aVswath-map
p7612
aVsweat
p7613
aVsweatshirt
p7614
aVsweden
p7615
aVswedish
p7616
aVsweep
p7617
aVsweet
p7618
aVswell
p7619
aVswift
p7620
aVswim
p7621
aVswimmer
p7622
aVswing
p7623
aVswipe
p7624
aVswirl
p7625
aVswiss
p7626
aVswitch
p7627
aVswitzerland
p7628
aVswitzerland-bas
p7629
aVswivel
p7630
aVswollen
p7631
aVswum
p7632
aVsydney
p7633
aVsylva
p7634
aVsylvest
p7635
aVsymbol
p7636
aVsymbolis
p7637
aVsympathet
p7638
aVsymphoni
p7639
aVsymptom
p7640
aVsymptomat
p7641
aVsynchronis
p7642
aVsyndicateroom
p7643
aVsyndrom
p7644
aVsynod
p7645
aVsyria
p7646
aVsyring
p7647
aVsyrup
p7648
aVsystem
p7649
aVsystemat
p7650
aVt-shirt
p7651
aVtabl
p7652
aVtablet
p7653
aVtackl
p7654
aVtactic
p7655
aVtaewoo
p7656
aVtag
p7657
aVtaglin
p7658
aVtahir
p7659
aVtail
p7660
aVtail-end
p7661
aVtailor-mad
p7662
aVtaipei
p7663
aVtaiwan
p7664
aVtaiwanes
p7665
aVtakaaki
p7666
aVtake
p7667
aVtake-away
p7668
aVtake-out
p7669
aVtake-up
p7670
aVtakeaway
p7671
aVtaken
p7672
aVtakeov
p7673
aVtale
p7674
aVtalent
p7675
aVtalent-rais
p7676
aVtalk
p7677
aVtalktalk
p7678
aVtall
p7679
aVtalli
p7680
aVtan
p7681
aVtancock
p7682
aVtandem
p7683
aVtang
p7684
aVtangl
p7685
aVtank
p7686
aVtanni
p7687
aVtantalis
p7688
aVtanuku
p7689
aVtanya
p7690
aVtanzania
p7691
aVtap
p7692
aVtar
p7693
aVtarb
p7694
aVtarget
p7695
aVtariff
p7696
aVtasha
p7697
aVtask
p7698
aVtast
p7699
aVtate
p7700
aVtatton
p7701
aVtaught
p7702
aVtax
p7703
aVtax-fre
p7704
aVtax-rais
p7705
aVtaxabl
p7706
aVtaxat
p7707
aVtaxman
p7708
aVtaxonom
p7709
aVtaxpay
p7710
aVtaylor
p7711
aVtb
p7712
aVtea
p7713
aVteach
p7714
aVteacher
p7715
aVteacher-l
p7716
aVteacher-pupil
p7717
aVteacher-stud
p7718
aVteacher-train
p7719
aVteam
p7720
aVteam-mat
p7721
aVteam-memb
p7722
aVteam-work
p7723
aVtear
p7724
aVtebbit
p7725
aVtech
p7726
aVtech-touch
p7727
aVtechnic
p7728
aVtechnician
p7729
aVtechniqu
p7730
aVtechnolog
p7731
aVtee
p7732
aVteen
p7733
aVteenag
p7734
aVteeth
p7735
aVtel
p7736
aVtelecommun
p7737
aVtelephon
p7738
aVtelescop
p7739
aVtelevis
p7740
aVtell
p7741
aVtelok
p7742
aVtempera
p7743
aVtemperatur
p7744
aVtemperature-rel
p7745
aVtempl
p7746
aVtempo
p7747
aVtemporari
p7748
aVtempt
p7749
aVtemptat
p7750
aVten
p7751
aVten-year
p7752
aVtenaci
p7753
aVtend
p7754
aVtendenc
p7755
aVtengchong
p7756
aVtension
p7757
aVtent
p7758
aVtenur
p7759
aVterabyt
p7760
aVtergat
p7761
aVterm
p7762
aVtermin
p7763
aVterminolog
p7764
aVterr
p7765
aVterrac
p7766
aVterrain
p7767
aVterribl
p7768
aVterrifi
p7769
aVterritori
p7770
aVterror
p7771
aVterroris
p7772
aVterrorist
p7773
aVtest
p7774
aVtest-cas
p7775
aVtestament
p7776
aVtesticl
p7777
aVtether
p7778
aVtexa
p7779
aVtexass
p7780
aVtext
p7781
aVtextbook
p7782
aVtextur
p7783
aVth
p7784
aVth-hole
p7785
aVth-round
p7786
aVthai
p7787
aVthailand
p7788
aVthale
p7789
aVthaler
p7790
aVthame
p7791
aVthane
p7792
aVthank
p7793
aVthat
p7794
aVthatcher
p7795
aVtheatr
p7796
aVtheatric
p7797
aVtheme
p7798
aVthen-known
p7799
aVtheoret
p7800
aVtheori
p7801
aVtherapi
p7802
aVtherapist
p7803
aVthere
p7804
aVtherefor
p7805
aVtheresa
p7806
aVthermal
p7807
aVthermostat-mak
p7808
aVthesi
p7809
aVtheyd
p7810
aVtheyll
p7811
aVtheyr
p7812
aVtheyv
p7813
aVthi
p7814
aVthick
p7815
aVthicken
p7816
aVthief
p7817
aVthin
p7818
aVthing
p7819
aVthink
p7820
aVthink-tank
p7821
aVthird
p7822
aVthird-from-bottom
p7823
aVthird-largest
p7824
aVthird-parti
p7825
aVthird-plac
p7826
aVthirst
p7827
aVthirty-first
p7828
aVthistl
p7829
aVthoma
p7830
aVthompson
p7831
aVthomson
p7832
aVthorndyk
p7833
aVthornhil
p7834
aVthorni
p7835
aVthorough
p7836
aVthough
p7837
aVthought
p7838
aVthought-provok
p7839
aVthousand
p7840
aVthrash
p7841
aVthreat
p7842
aVthreaten
p7843
aVthree
p7844
aVthree-
p7845
aVthree-and-a-half
p7846
aVthree-day
p7847
aVthree-metr
p7848
aVthree-mil
p7849
aVthree-put
p7850
aVthree-quart
p7851
aVthree-shot
p7852
aVthree-stag
p7853
aVthree-tier
p7854
aVthree-tim
p7855
aVthree-year
p7856
aVthreshold
p7857
aVthrew
p7858
aVthrill
p7859
aVthrive
p7860
aVthroat
p7861
aVthrone
p7862
aVthrottl
p7863
aVthroughout
p7864
aVthrow
p7865
aVthrown
p7866
aVthruster
p7867
aVthumb
p7868
aVthump
p7869
aVthursday
p7870
aVthus
p7871
aVthwait
p7872
aVtic
p7873
aVtick
p7874
aVticket
p7875
aVtidal
p7876
aVtide
p7877
aVtidi
p7878
aVtidili
p7879
aVtie
p7880
aVtiger
p7881
aVtight
p7882
aVtighten
p7883
aVtiki
p7884
aVtile
p7885
aVtilt
p7886
aVtim
p7887
aVtimber
p7888
aVtime
p7889
aVtime-tri
p7890
aVtimet
p7891
aVtimid
p7892
aVtimothi
p7893
aVtin
p7894
aVtindal
p7895
aVtini
p7896
aVtinker
p7897
aVtip
p7898
aVtire
p7899
aVtirunesh
p7900
aVtissu
p7901
aVtitan
p7902
aVtitl
p7903
aVtmau
p7904
aVtns-bmrb
p7905
aVtns-brmb
p7906
aVto-do
p7907
aVtoast
p7908
aVtoday
p7909
aVtodd
p7910
aVtoddler
p7911
aVtoe
p7912
aVtogeth
p7913
aVtoilet
p7914
aVtokushi
p7915
aVtokyo
p7916
aVtold
p7917
aVtoler
p7918
aVtoll
p7919
aVtollcross
p7920
aVtom
p7921
aVtomato
p7922
aVtombola
p7923
aVtomkin
p7924
aVtomlin
p7925
aVtomlinson
p7926
aVtommi
p7927
aVtomorrow
p7928
aVtone
p7929
aVtoni
p7930
aVtonight
p7931
aVtonn
p7932
aVtook
p7933
aVtool
p7934
aVtooth-bil
p7935
aVtop
p7936
aVtop-flight
p7937
aVtop-level
p7938
aVtop-seven
p7939
aVtopic
p7940
aVtopographi
p7941
aVtore
p7942
aVtori
p7943
aVtorn
p7944
aVtorpedo-shap
p7945
aVtorrent
p7946
aVtorrid
p7947
aVtoss
p7948
aVtotal
p7949
aVtottenham
p7950
aVtou
p7951
aVtouch
p7952
aVtouchdown
p7953
aVtouchlin
p7954
aVtough
p7955
aVtoughen
p7956
aVtougher
p7957
aVtoughest
p7958
aVtour
p7959
aVtourist
p7960
aVtournament
p7961
aVtow
p7962
aVtoward
p7963
aVtower
p7964
aVtown
p7965
aVtownsend
p7966
aVtoxic
p7967
aVtoxicolog
p7968
aVtoy
p7969
aVtoyota
p7970
aVtrace
p7971
aVtrack
p7972
aVtracksuit
p7973
aVtrade
p7974
aVtrademark
p7975
aVtradit
p7976
aVtraffic
p7977
aVtragedi
p7978
aVtragic
p7979
aVtrail
p7980
aVtrain
p7981
aVtrainer
p7982
aVtrajectori
p7983
aVtransact
p7984
aVtransfer
p7985
aVtransfix
p7986
aVtransform
p7987
aVtransit
p7988
aVtranslat
p7989
aVtransmit
p7990
aVtranspar
p7991
aVtransplant
p7992
aVtransport
p7993
aVtrap
p7994
aVtrauma
p7995
aVtraumat
p7996
aVtravel
p7997
aVtraver
p7998
aVtreacher
p7999
aVtreadwell-collin
p8000
aVtreasur
p8001
aVtreasuri
p8002
aVtreat
p8003
aVtreati
p8004
aVtreatment
p8005
aVtrebl
p8006
aVtree
p8007
aVtree-plant
p8008
aVtrek
p8009
aVtremend
p8010
aVtrend
p8011
aVtrent
p8012
aVtrepid
p8013
aVtri
p8014
aVtrial
p8015
aVtriall
p8016
aVtriathlet
p8017
aVtriathlon
p8018
aVtribal
p8019
aVtribun
p8020
aVtribut
p8021
aVtricia
p8022
aVtrick
p8023
aVtricki
p8024
aVtricycl
p8025
aVtrigger
p8026
aVtrimethylaminuria
p8027
aVtrip
p8028
aVtripl
p8029
aVtriple-bogey
p8030
aVtrippier
p8031
aVtristram
p8032
aVtriumph
p8033
aVtrivial
p8034
aVtrixibell
p8035
aVtrojan
p8036
aVtrolley
p8037
aVtroop
p8038
aVtrophi
p8039
aVtropic
p8040
aVtropical-weight
p8041
aVtrott
p8042
aVtroubl
p8043
aVtrough
p8044
aVtroy
p8045
aVtruck
p8046
aVtrue
p8047
aVtruli
p8048
aVtruss
p8049
aVtrust
p8050
aVtrustan
p8051
aVtruth
p8052
aVtsegay
p8053
aVtube-lik
p8054
aVtuc
p8055
aVtucker
p8056
aVtuesday
p8057
aVtuition
p8058
aVtumblr
p8059
aVtumour
p8060
aVtune
p8061
aVtunnel
p8062
aVturbin
p8063
aVturf
p8064
aVturkey
p8065
aVturkmenistan
p8066
aVturmoil
p8067
aVturn
p8068
aVturnaround
p8069
aVturner
p8070
aVturnout
p8071
aVturnov
p8072
aVtutor
p8073
aVtutori
p8074
aVtv
p8075
aVtvs
p8076
aVtweet
p8077
aVtwelv
p8078
aVtwenti
p8079
aVtwenty-eight
p8080
aVtwice
p8081
aVtwickenham
p8082
aVtwist
p8083
aVtwitter
p8084
aVtwo
p8085
aVtwo-and-a-half
p8086
aVtwo-hour
p8087
aVtwo-pag
p8088
aVtwo-par
p8089
aVtwo-third
p8090
aVtwo-tim
p8091
aVtwo-way
p8092
aVtwos
p8093
aVtycoon
p8094
aVtype
p8095
aVtyphoid
p8096
aVtyphoon
p8097
aVtypic
p8098
aVtyre
p8099
aVu
p8100
aVu-turn
p8101
aVubiquit
p8102
aVucla
p8103
aVuefa
p8104
aVuganda
p8105
aVugandan
p8106
aVuk
p8107
aVuk-bas
p8108
aVukrain
p8109
aVukrainian
p8110
aVulla
p8111
aVultim
p8112
aVultra-effici
p8113
aVultra-fast
p8114
aVultra-high
p8115
aVultra-purifi
p8116
aVultrason
p8117
aVun
p8118
aVun-back
p8119
aVunabl
p8120
aVunaccept
p8121
aVunafford
p8122
aVunanim
p8123
aVunannounc
p8124
aVunavoid
p8125
aVunawar
p8126
aVunbeaten
p8127
aVunbeliev
p8128
aVunbossi
p8129
aVunbound
p8130
aVunbroken
p8131
aVunbuild
p8132
aVuncensor
p8133
aVuncertain
p8134
aVuncertainti
p8135
aVunchain
p8136
aVunchang
p8137
aVuncl
p8138
aVunclutt
p8139
aVuncollect
p8140
aVuncomfort
p8141
aVuncompromis
p8142
aVunconsci
p8143
aVuncool
p8144
aVuncoupl
p8145
aVuncov
p8146
aVundaunt
p8147
aVundeclar
p8148
aVundef
p8149
aVunder
p8150
aVunder-
p8151
aVunder-aspir
p8152
aVunder-fund
p8153
aVundercard
p8154
aVundercov
p8155
aVunderdiagnos
p8156
aVunderdog
p8157
aVunderestim
p8158
aVundergradu
p8159
aVunderground
p8160
aVunderlin
p8161
aVundermin
p8162
aVunderp
p8163
aVunderperform
p8164
aVunderpin
p8165
aVunderresearch
p8166
aVundersea
p8167
aVunderstand
p8168
aVunderstood
p8169
aVundertak
p8170
aVundertaken
p8171
aVundertr
p8172
aVunderw
p8173
aVunderwat
p8174
aVunderway
p8175
aVunderwhelm
p8176
aVundeserv
p8177
aVundetect
p8178
aVundisclos
p8179
aVundoubt
p8180
aVuneas
p8181
aVuneasi
p8182
aVunelect
p8183
aVunemploy
p8184
aVunend
p8185
aVunequ
p8186
aVunesco
p8187
aVunexpect
p8188
aVunfamiliar
p8189
aVunfavour
p8190
aVunfinish
p8191
aVunflapp
p8192
aVunfold
p8193
aVunforgett
p8194
aVunfortun
p8195
aVunhappi
p8196
aVunherald
p8197
aVunhing
p8198
aVuniform
p8199
aVuninhabit
p8200
aVuninterrupt
p8201
aVunion
p8202
aVuniqu
p8203
aVunison
p8204
aVunit
p8205
aVunivers
p8206
aVunjust
p8207
aVunknown
p8208
aVunleash
p8209
aVunless
p8210
aVunlik
p8211
aVunlimit
p8212
aVunload
p8213
aVunlucki
p8214
aVunman
p8215
aVunmark
p8216
aVunmarri
p8217
aVunmiss
p8218
aVunmistak
p8219
aVunnam
p8220
aVunnecessari
p8221
aVunnerv
p8222
aVunnot
p8223
aVunoccupi
p8224
aVunpack
p8225
aVunpaid
p8226
aVunparallel
p8227
aVunpatch
p8228
aVunpick
p8229
aVunpleas
p8230
aVunpopular
p8231
aVunpreced
p8232
aVunprepar
p8233
aVunprocess
p8234
aVunproven
p8235
aVunrealist
p8236
aVunrel
p8237
aVunreli
p8238
aVunremark
p8239
aVunrival
p8240
aVunscientif
p8241
aVunseen
p8242
aVunsettl
p8243
aVunshak
p8244
aVunskil
p8245
aVunsold
p8246
aVunstopp
p8247
aVunstructur
p8248
aVunsuit
p8249
aVunsung
p8250
aVunsurpass
p8251
aVunsurpris
p8252
aVuntap
p8253
aVuntax
p8254
aVuntouch
p8255
aVuntri
p8256
aVuntroubl
p8257
aVuntru
p8258
aVunturn
p8259
aVunus
p8260
aVunusu
p8261
aVunveil
p8262
aVunviabl
p8263
aVunwant
p8264
aVunwarr
p8265
aVunwel
p8266
aVunwelcom
p8267
aVunwit
p8268
aVup-and-com
p8269
aVup-to-d
p8270
aVupbeat
p8271
aVupbring
p8272
aVupcom
p8273
aVupdat
p8274
aVupfront
p8275
aVupgrad
p8276
aVuphold
p8277
aVuplift
p8278
aVupload
p8279
aVupon
p8280
aVupper
p8281
aVuppsala
p8282
aVupset
p8283
aVupsid
p8284
aVupsurg
p8285
aVupturn
p8286
aVupward
p8287
aVurban
p8288
aVurbanis
p8289
aVurg
p8290
aVurgenc
p8291
aVurgent
p8292
aVurin
p8293
aVurl
p8294
aVus
p8295
aVus-bas
p8296
aVusa
p8297
aVusain
p8298
aVuse
p8299
aVuseabl
p8300
aVuseless
p8301
aVuser
p8302
aVuser-fac
p8303
aVusernam
p8304
aVusher
p8305
aVuspga
p8306
aVuss
p8307
aVusual
p8308
aVutd
p8309
aVuterus
p8310
aVutil
p8311
aVutilis
p8312
aVutter
p8313
aVuwe
p8314
aVuwimana
p8315
aVv
p8316
aVvacanc
p8317
aVvaccin
p8318
aVvagin
p8319
aVvagina
p8320
aVvaginal-lin
p8321
aVvaizey
p8322
aVvale
p8323
aVvalentino
p8324
aVvalid
p8325
aVvalley
p8326
aVvalley-bas
p8327
aVvalmalenco
p8328
aVvalu
p8329
aVvaluabl
p8330
aVvalv
p8331
aVvan
p8332
aVvancouv
p8333
aVvaniti
p8334
aVvanmarck
p8335
aVvapour
p8336
aVvarga
p8337
aVvari
p8338
aVvariat
p8339
aVvarieti
p8340
aVvarious
p8341
aVvase
p8342
aVvashem
p8343
aVvast
p8344
aVvattenfal
p8345
aVvaudevill
p8346
aVvault
p8347
aVvector
p8348
aVvega
p8349
aVveget
p8350
aVvehicl
p8351
aVvell
p8352
aVvelodrom
p8353
aVvelvet
p8354
aVvend
p8355
aVvenizelo
p8356
aVvent
p8357
aVventil
p8358
aVventur
p8359
aVvenu
p8360
aVveranda
p8361
aVverbal
p8362
aVverbos
p8363
aVverdict
p8364
aVvereniki
p8365
aVverg
p8366
aVverifi
p8367
aVversatil
p8368
aVversion
p8369
aVvertic
p8370
aVverv
p8371
aVvessel
p8372
aVvet
p8373
aVveteran
p8374
aVveterinari
p8375
aVvhs
p8376
aVvia
p8377
aVviabl
p8378
aVvibrant
p8379
aVvic
p8380
aVvice
p8381
aVvice-chairman
p8382
aVvice-presid
p8383
aVvice-princip
p8384
aVvicent
p8385
aVvicki
p8386
aVvictim
p8387
aVvictimis
p8388
aVvictor
p8389
aVvictori
p8390
aVvictoria
p8391
aVvideo
p8392
aVvideograph
p8393
aVvietnam
p8394
aVview
p8395
aVviewer
p8396
aVvigor
p8397
aVvihear
p8398
aVviktor
p8399
aVvilifi
p8400
aVvilla
p8401
aVvillag
p8402
aVvillier
p8403
aVvimeo
p8404
aVvinc
p8405
aVvincent
p8406
aVvineyard
p8407
aVviolenc
p8408
aVviolent
p8409
aVviolet
p8410
aVvirgin
p8411
aVvirologist
p8412
aVvirtu
p8413
aVvirtual
p8414
aVvirus
p8415
aVvirus-induc
p8416
aVvisa
p8417
aVvisibl
p8418
aVvision
p8419
aVvisit
p8420
aVvisitor
p8421
aVvisual
p8422
aVvisualis
p8423
aVvital
p8424
aVvivero
p8425
aVvivien
p8426
aVvlaar
p8427
aVvladimir
p8428
aVvocabulari
p8429
aVvocal
p8430
aVvoic
p8431
aVvolcan
p8432
aVvolk
p8433
aVvolkswagen
p8434
aVvolley
p8435
aVvolum
p8436
aVvolunt
p8437
aVvoluntari
p8438
aVvomit
p8439
aVvote
p8440
aVvoter
p8441
aVvoyag
p8442
aVvulner
p8443
aVvulva
p8444
aVw
p8445
aVwa
p8446
aVwaft
p8447
aVwag
p8448
aVwage
p8449
aVwail
p8450
aVwait
p8451
aVwaiter
p8452
aVwake
p8453
aVwaldman
p8454
aVwale
p8455
aVwaless
p8456
aVwalk
p8457
aVwalker
p8458
aVwalker-hebborn
p8459
aVwall
p8460
aVwallabi
p8461
aVwallac
p8462
aVwalliam
p8463
aVwalmsley
p8464
aVwalsh
p8465
aVwalter
p8466
aVwalusimbi
p8467
aVwanamak
p8468
aVwanjiru
p8469
aVwant
p8470
aVwar
p8471
aVwar-torn
p8472
aVward
p8473
aVwarehous
p8474
aVwari
p8475
aVwark
p8476
aVwarlord
p8477
aVwarm
p8478
aVwarn
p8479
aVwarplan
p8480
aVwarren
p8481
aVwarrington
p8482
aVwartim
p8483
aVwarwick
p8484
aVwash
p8485
aVwashington
p8486
aVwasnt
p8487
aVwast
p8488
aVwatch
p8489
aVwatch-point
p8490
aVwatchdog
p8491
aVwater
p8492
aVwater-recycl
p8493
aVwater-resist
p8494
aVwaterlin
p8495
aVwaterman
p8496
aVwatkin
p8497
aVwatson
p8498
aVwave
p8499
aVwaverley
p8500
aVway
p8501
aVwayward
p8502
aVwba
p8503
aVwbo
p8504
aVweak
p8505
aVweaker
p8506
aVweakest
p8507
aVwealth
p8508
aVwealthi
p8509
aVweapon
p8510
aVwear
p8511
aVwearabl
p8512
aVweari
p8513
aVweather
p8514
aVweav
p8515
aVweb
p8516
aVwebb
p8517
aVwebmail
p8518
aVwebsit
p8519
aVwebster
p8520
aVwed
p8521
aVwedg
p8522
aVwedlock
p8523
aVwednesday
p8524
aVweek
p8525
aVweek-long
p8526
aVweekend
p8527
aVweigh
p8528
aVweight
p8529
aVweimann
p8530
aVweir
p8531
aVweird
p8532
aVweiskopf
p8533
aVwelcom
p8534
aVwelfar
p8535
aVwelfare-abus
p8536
aVwelfare-specif
p8537
aVwell
p8538
aVwell-b
p8539
aVwell-capitalis
p8540
aVwell-intent
p8541
aVwell-known
p8542
aVwell-mad
p8543
aVwell-round
p8544
aVwell-settl
p8545
aVwellcom
p8546
aVwellen
p8547
aVweller
p8548
aVwello
p8549
aVwelsh
p8550
aVwelshman
p8551
aVwelszow-south
p8552
aVwelterweight
p8553
aVwelwyn
p8554
aVwembley
p8555
aVwener
p8556
aVwent
p8557
aVwerent
p8558
aVwes
p8559
aVwest
p8560
aVwestern
p8561
aVwesterwell
p8562
aVwestminst
p8563
aVwestwood
p8564
aVwet
p8565
aVwetsuit
p8566
aVwettest
p8567
aVweve
p8568
aVweybridg
p8569
aVweymss
p8570
aVwh
p8571
aVwhale
p8572
aVwharton
p8573
aVwhat
p8574
aVwhatev
p8575
aVwhatsoev
p8576
aVwheel
p8577
aVwheelchair
p8578
aVwheeler
p8579
aVwhelton
p8580
aVwhenev
p8581
aVwherea
p8582
aVwherebi
p8583
aVwherev
p8584
aVwhether
p8585
aVwhiley
p8586
aVwhilst
p8587
aVwhim
p8588
aVwhip
p8589
aVwhirlwind
p8590
aVwhiski
p8591
aVwhisper
p8592
aVwhistl
p8593
aVwhistleblow
p8594
aVwhite
p8595
aVwhite-collar
p8596
aVwhite-flesh
p8597
aVwhitehal
p8598
aVwhitehead
p8599
aVwhitehurst
p8600
aVwhoever
p8601
aVwhole
p8602
aVwholeheart
p8603
aVwholesal
p8604
aVwholli
p8605
aVwhop
p8606
aVwhos
p8607
aVwhose
p8608
aVwhyte
p8609
aVwi-fi
p8610
aVwiddecomb
p8611
aVwide
p8612
aVwide-ey
p8613
aVwide-rang
p8614
aVwide-scal
p8615
aVwiden
p8616
aVwider
p8617
aVwidespread
p8618
aVwidth
p8619
aVwield
p8620
aVwife
p8621
aVwigan
p8622
aVwiggin
p8623
aVwil
p8624
aVwild
p8625
aVwilder
p8626
aVwildest
p8627
aVwildlif
p8628
aVwilkin
p8629
aVwilkinson
p8630
aVwilko
p8631
aVwill
p8632
aVwilli
p8633
aVwilliam
p8634
aVwilliamss
p8635
aVwilling
p8636
aVwilmslow
p8637
aVwilshaw
p8638
aVwilson
p8639
aVwilton
p8640
aVwimp
p8641
aVwin
p8642
aVwin-win
p8643
aVwinc
p8644
aVwinch
p8645
aVwind
p8646
aVwindow
p8647
aVwindpip
p8648
aVwindsor
p8649
aVwine
p8650
aVwing
p8651
aVwinger
p8652
aVwingspan
p8653
aVwinnabl
p8654
aVwinner
p8655
aVwinter
p8656
aVwipe
p8657
aVwire
p8658
aVwirelesss
p8659
aVwisden
p8660
aVwise
p8661
aVwiseman
p8662
aVwish
p8663
aVwit
p8664
aVwithdrawn
p8665
aVwithdrew
p8666
aVwithin
p8667
aVwithington
p8668
aVwithout
p8669
aVwitti
p8670
aVwittiest
p8671
aVwive
p8672
aVwobbl
p8673
aVwoeful
p8674
aVwoefulli
p8675
aVwoken
p8676
aVwolf
p8677
aVwolfgang
p8678
aVwolfson
p8679
aVwolv
p8680
aVwoman
p8681
aVwomb
p8682
aVwomen
p8683
aVwon
p8684
aVwonder
p8685
aVwonderwal
p8686
aVwonka
p8687
aVwont
p8688
aVwood
p8689
aVwooden
p8690
aVwoodford
p8691
aVwoodgat
p8692
aVwoodhous
p8693
aVwoodi
p8694
aVwoodland
p8695
aVwoodroff
p8696
aVwoodward
p8697
aVwoodwork
p8698
aVwoolgar
p8699
aVwoosnam
p8700
aVworcestershir
p8701
aVword
p8702
aVwore
p8703
aVwork
p8704
aVwork-lif
p8705
aVworkahol
p8706
aVworker
p8707
aVworkforc
p8708
aVworking-class
p8709
aVworkless
p8710
aVworklif
p8711
aVworkload
p8712
aVworkplac
p8713
aVworkshop
p8714
aVworld
p8715
aVworld-record
p8716
aVworldwid
p8717
aVworri
p8718
aVwors
p8719
aVworship
p8720
aVworst
p8721
aVworth
p8722
aVworthless
p8723
aVworthwhil
p8724
aVwould
p8725
aVwould-b
p8726
aVwouldnt
p8727
aVwound
p8728
aVwoven
p8729
aVwow
p8730
aVwozniacki
p8731
aVwrap
p8732
aVwrapper
p8733
aVwrath
p8734
aVwreath
p8735
aVwreckag
p8736
aVwrest
p8737
aVwrite
p8738
aVwriter
p8739
aVwritten
p8740
aVwrong
p8741
aVwrong-do
p8742
aVwrote
p8743
aVws
p8744
aVwulli
p8745
aVx
p8746
aVx-forc
p8747
aVxcx
p8748
aVxenon
p8749
aVxi
p8750
aVxie
p8751
aVya
p8752
aVyad
p8753
aVyahoo
p8754
aVyale
p8755
aVyamaha
p8756
aVyamal
p8757
aVyang
p8758
aVyangon
p8759
aVyannick
p8760
aVyanukovych
p8761
aVyard
p8762
aVyate
p8763
aVyatsenyuk
p8764
aVyaya
p8765
aVybas
p8766
aVyeah
p8767
aVyear
p8768
aVyear-old
p8769
aVyear-round
p8770
aVyearn
p8771
aVyellow
p8772
aVyes
p8773
aVyesno
p8774
aVyesterday
p8775
aVyet
p8776
aVyield
p8777
aVyin
p8778
aVyong
p8779
aVyonni
p8780
aVyork
p8781
aVyorker
p8782
aVyorkshir
p8783
aVyoud
p8784
aVyougov
p8785
aVyoull
p8786
aVyoung
p8787
aVyounger
p8788
aVyoungest
p8789
aVyoungster
p8790
aVyour
p8791
aVyouth
p8792
aVyoutub
p8793
aVyouv
p8794
aVyoweri
p8795
aVyulia
p8796
aVyvonn
p8797
aVz
p8798
aVzabaleta
p8799
aVzara
p8800
aVzeal
p8801
aVzealand
p8802
aVzeffirelli
p8803
aVzenith
p8804
aVzeppelin
p8805
aVzheltoukhova
p8806
aVzhushan
p8807
aVzionist
p8808
aVzoe
p8809
aVzone
p8810
aVzoolog
p8811
aVzopa
p8812
aVzsl
p8813
a.