(lp0
V
p1
aVa-level
p2
aVaa
p3
aVaaa
p4
aVababa
p5
aVabandon
p6
aVabbot
p7
aVabc
p8
aVaberdeen
p9
aVabhorr
p10
aVabil
p11
aVabingdon
p12
aVabl
p13
aVable-bodi
p14
aVabnorm
p15
aVabort
p16
aVabound
p17
aVabove-infl
p18
aVabraham
p19
aVabram
p20
aVabroad
p21
aVabsenc
p22
aVabsent
p23
aVabshero
p24
aVabsolut
p25
aVabsorb
p26
aVabu
p27
aVabund
p28
aVabus
p29
aVaca
p30
aVacadem
p31
aVacademi
p32
aVacceler
p33
aVaccentu
p34
aVaccept
p35
aVaccess
p36
aVaccessori
p37
aVaccid
p38
aVaccident
p39
aVacclaim
p40
aVaccolad
p41
aVaccommod
p42
aVaccompani
p43
aVaccomplish
p44
aVaccord
p45
aVaccount
p46
aVaccrington
p47
aVaccumul
p48
aVaccur
p49
aVaccuraci
p50
aVaccus
p51
aVaccustom
p52
aVace
p53
aVach
p54
aVachiev
p55
aVacknowledg
p56
aVacn
p57
aVacoust
p58
aVacquir
p59
aVacquisit
p60
aVacquit
p61
aVacquitt
p62
aVacrobat
p63
aVacross
p64
aVact
p65
aVaction
p66
aVactiv
p67
aVactivist
p68
aVacton
p69
aVactor
p70
aVactress
p71
aVactual
p72
aVacut
p73
aVad
p74
aVadam
p75
aVadapt
p76
aVadd
p77
aVadderley
p78
aVaddi
p79
aVaddict
p80
aVaddit
p81
aVaddress
p82
aVadel
p83
aVadequ
p84
aVaderin
p85
aVadjac
p86
aVadject
p87
aVadjourn
p88
aVadjust
p89
aVadministr
p90
aVadmir
p91
aVadmiss
p92
aVadmit
p93
aVadolesc
p94
aVadomah
p95
aVadopt
p96
aVador
p97
aVadorn
p98
aVadrian
p99
aVadrianmolewillliveforev
p100
aVadrin
p101
aVadult
p102
aVadulthood
p103
aVadvanc
p104
aVadvantag
p105
aVadvent
p106
aVadventur
p107
aVadvers
p108
aVadversari
p109
aVadvert
p110
aVadvertis
p111
aVadvic
p112
aVadvis
p113
aVadvisor
p114
aVadvisori
p115
aVadvoc
p116
aVae
p117
aVaerial
p118
aVaerodynam
p119
aVaeroplan
p120
aVaerospac
p121
aVaffair
p122
aVaffect
p123
aVaffili
p124
aVaffin
p125
aVaffirm
p126
aVaffluent
p127
aVafford
p128
aVafghanistan
p129
aVafraid
p130
aVafrica
p131
aVafrican
p132
aVafrican-american
p133
aVafriqu
p134
aVafter-effect
p135
aVaftermath
p136
aVafternoon
p137
aVafterward
p138
aVafzal
p139
aVagbonlahor
p140
aVage
p141
aVageless
p142
aVagenc
p143
aVagenda
p144
aVagent
p145
aVaggress
p146
aVago
p147
aVagora
p148
aVagora-energiewend
p149
aVagre
p150
aVagreement
p151
aVagricultur
p152
aVaguascalient
p153
aVaguero
p154
aVaguilar
p155
aVah
p156
aVahead
p157
aVahmadi
p158
aVaid
p159
aVaim
p160
aVaintre
p161
aVair
p162
aVair-bush
p163
aVair-condit
p164
aVair-travel
p165
aVairbag
p166
aVairbus
p167
aVaircraft
p168
aVaird
p169
aVairlin
p170
aVairport
p171
aVaitor
p172
aVajmal
p173
aVajud
p174
aVaka
p175
aVal
p176
aVal-qaeda-link
p177
aVal-shabab
p178
aValam
p179
aValan
p180
aValarm
p181
aValastair
p182
aValbarn
p183
aValbeit
p184
aValbert
p185
aValberto
p186
aValbion
p187
aValbrighton
p188
aValbum
p189
aValcohol
p190
aValdridg
p191
aValeem
p192
aValeix
p193
aValeksandar
p194
aValenia
p195
aValert
p196
aValex
p197
aValexand
p198
aValgi
p199
aValgorithm
p200
aValief
p201
aValight
p202
aValign
p203
aValik
p204
aValison
p205
aValistair
p206
aValiv
p207
aVall-mal
p208
aVall-seat
p209
aVall-tim
p210
aVallan
p211
aValleg
p212
aVallen
p213
aValli
p214
aVallianc
p215
aValliss
p216
aValloc
p217
aVallow
p218
aValluvi
p219
aValmighti
p220
aValmost
p221
aValon
p222
aValong
p223
aValongsid
p224
aValp
p225
aValpesh
p226
aValpha
p227
aValpin
p228
aValreadi
p229
aValright
p230
aValso
p231
aValter
p232
aValtern
p233
aValthough
p234
aValtimet
p235
aValtitud
p236
aValtogeth
p237
aValum
p238
aValuminium
p239
aValun
p240
aValvaro
p241
aValway
p242
aValzheim
p243
aVamalgam
p244
aVamass
p245
aVamateur
p246
aVamaz
p247
aVamazon
p248
aVambassador
p249
aVambienc
p250
aVambit
p251
aVambiti
p252
aVambul
p253
aVamen
p254
aVamend
p255
aVamerica
p256
aVamerican
p257
aVamericano
p258
aVami
p259
aVamic
p260
aVamid
p261
aVamir
p262
aVammunit
p263
aVamnesti
p264
aVamo
p265
aVamong
p266
aVamongst
p267
aVamount
p268
aVamplifi
p269
aVamulet
p270
aVamus
p271
aVanabol
p272
aVanalog
p273
aVanalys
p274
aVanalysi
p275
aVanalyst
p276
aVanarchist
p277
aVancestor
p278
aVanchor
p279
aVancient
p280
aVanderson
p281
aVandi
p282
aVandr
p283
aVandrea
p284
aVandrew
p285
aVandroid
p286
aVanfield
p287
aVangel
p288
aVangela
p289
aVangelina
p290
aVanger
p291
aVangl
p292
aVanglo-american
p293
aVanglo-irish
p294
aVangri
p295
aVanim
p296
aVann
p297
aVanna
p298
aVannan
p299
aVannett
p300
aVannex
p301
aVanniversari
p302
aVannounc
p303
aVannoy
p304
aVannual
p305
aVannum
p306
aVanonym
p307
aVanorexia
p308
aVanoth
p309
aVanswer
p310
aVantagonis
p311
aVantarctica
p312
aVanthem
p313
aVanthoni
p314
aVanti-anxieti
p315
aVanti-busi
p316
aVanti-retrovir
p317
aVanti-shark
p318
aVanti-soci
p319
aVantibiot
p320
aVanticip
p321
aVantidepress
p322
aVantonio
p323
aVanxieti
p324
aVanxious
p325
aVanybodi
p326
aVanymor
p327
aVanyon
p328
aVanyth
p329
aVanytim
p330
aVanyway
p331
aVanywher
p332
aVaoyama
p333
aVapac
p334
aVapart
p335
aVapiec
p336
aVaplasia
p337
aVapolog
p338
aVapologis
p339
aVapp
p340
aVappar
p341
aVapparatus
p342
aVappeal
p343
aVappear
p344
aVappeas
p345
aVappetit
p346
aVappl
p347
aVapplaud
p348
aVappli
p349
aVapplianc
p350
aVapplic
p351
aVappoint
p352
aVappreci
p353
aVapprentic
p354
aVapprenticeship
p355
aVapproach
p356
aVappropri
p357
aVapprov
p358
aVapprox
p359
aVapproxim
p360
aVapril
p361
aVaptitud
p362
aVaquarium
p363
aVar
p364
aVarab
p365
aVarabia
p366
aVarboretum
p367
aVarchaic
p368
aVarcher
p369
aVarchitect
p370
aVarchitectur
p371
aVarchiv
p372
aVarctic
p373
aVarea
p374
aVarent
p375
aVarfield
p376
aVargentin
p377
aVargentina
p378
aVargu
p379
aVarguabl
p380
aVargument
p381
aVarisen
p382
aVaristocrat
p383
aVarm
p384
aVarmi
p385
aVarmitag
p386
aVarmstrong
p387
aVarmtrac
p388
aVarn
p389
aVarni
p390
aVarnold
p391
aVaround
p392
aVarous
p393
aVarrang
p394
aVarray
p395
aVarrest
p396
aVarriv
p397
aVarrog
p398
aVarsenal
p399
aVarseniy
p400
aVart
p401
aVartefact
p402
aVarthur
p403
aVarticl
p404
aVarticul
p405
aVartist
p406
aVartwork
p407
aVarundel
p408
aVascent
p409
aVasean
p410
aVash
p411
aVash-whit
p412
aVashcroft
p413
aVashdown
p414
aVashley
p415
aVashton
p416
aVashworth
p417
aVasia
p418
aVasian
p419
aVasid
p420
aVask
p421
aVaspect
p422
aVasphalt
p423
aVaspir
p424
aVassault
p425
aVassembl
p426
aVassert
p427
aVassess
p428
aVassessor
p429
aVasset
p430
aVassidu
p431
aVassign
p432
aVassist
p433
aVassoci
p434
aVassum
p435
aVassumpt
p436
aVassur
p437
aVastala
p438
aVasterix
p439
aVasthma
p440
aVaston
p441
aVastonish
p442
aVat-a-gl
p443
aVatala
p444
aVate
p445
aVateneo
p446
aVatheist
p447
aVathen
p448
aVathlet
p449
aVathough
p450
aVatl
p451
aVatlant
p452
aVatlanta
p453
aVatlanta-bas
p454
aVatleti
p455
aVatletico
p456
aVatmospher
p457
aVattach
p458
aVattack
p459
aVattack-mind
p460
aVattain
p461
aVattempt
p462
aVattenborough
p463
aVattend
p464
aVattent
p465
aVatterwasch
p466
aVattest
p467
aVattitud
p468
aVattle
p469
aVattorney
p470
aVattract
p471
aVattribut
p472
aVauction
p473
aVaudienc
p474
aVaudio-descript
p475
aVaudiolog
p476
aVaudit
p477
aVaugment
p478
aVaugust
p479
aVaugusta
p480
aVaung
p481
aVauschwitz
p482
aVauster
p483
aVaustralia
p484
aVaustralian
p485
aVaustria
p486
aVauthor
p487
aVautism
p488
aVautist
p489
aVautobiographi
p490
aVautom
p491
aVautomat
p492
aVautomot
p493
aVautonom
p494
aVautumn
p495
aVauv
p496
aVav
p497
aVavail
p498
aVaverag
p499
aVaviat
p500
aVaviv
p501
aVavoid
p502
aVavonmouth
p503
aVaw
p504
aVawait
p505
aVawar
p506
aVaward
p507
aVawards-nomin
p508
aVawash
p509
aVaway
p510
aVawesom
p511
aVawkward
p512
aVaxe
p513
aVayala
p514
aVayel
p515
aVayer
p516
aVayoad
p517
aVayr
p518
aVazalea
p519
aVazing
p520
aVaztec
p521
aVb
p522
aVb-
p523
aVbabi
p524
aVbaccalaur
p525
aVbachelor
p526
aVback
p527
aVback-lin
p528
aVback-nin
p529
aVback-slap
p530
aVback-to-back
p531
aVback-up
p532
aVbackbench
p533
aVbackground
p534
aVbacklash
p535
aVbackshal
p536
aVbackstag
p537
aVbackstrok
p538
aVbacteria
p539
aVbad
p540
aVbaddiel
p541
aVbadenoch
p542
aVbadg
p543
aVbadger
p544
aVbafta
p545
aVbag
p546
aVbaggi
p547
aVbaggott
p548
aVbaghdad
p549
aVbagmen
p550
aVbahman
p551
aVbail
p552
aVbailey
p553
aVbailout
p554
aVbait
p555
aVbake
p556
aVbake-off
p557
aVbaker
p558
aVbalado
p559
aVbalanc
p560
aVball
p561
aVballoon
p562
aVballot
p563
aVbaltic
p564
aVbamboo
p565
aVbamboo-product
p566
aVban
p567
aVbanana
p568
aVband
p569
aVbandi
p570
aVbandit
p571
aVbandwagon
p572
aVbang
p573
aVbangkok
p574
aVbank
p575
aVbanker
p576
aVbanknot
p577
aVbanquet
p578
aVbao
p579
aVbaptist
p580
aVbar
p581
aVbarack
p582
aVbarb
p583
aVbarbecu
p584
aVbarcelona
p585
aVbarclayscom
p586
aVbare
p587
aVbarg
p588
aVbarn
p589
aVbarnet
p590
aVbarnett
p591
aVbarney
p592
aVbaro
p593
aVbaronet
p594
aVbarr
p595
aVbarrack
p596
aVbarrag
p597
aVbarri
p598
aVbarricad
p599
aVbarrier
p600
aVbarrist
p601
aVbarroso
p602
aVbaryon
p603
aVbase
p604
aVbasebal
p605
aVbasel
p606
aVbaselin
p607
aVbash
p608
aVbasi
p609
aVbasic
p610
aVbasil
p611
aVbass
p612
aVbastardis
p613
aVbastion
p614
aVbat
p615
aVbatavia
p616
aVbatch
p617
aVbatch-cook
p618
aVbati
p619
aVbatsman
p620
aVbatteri
p621
aVbattl
p622
aVbaxendal
p623
aVbay
p624
aVbayram
p625
aVbba
p626
aVbbc
p627
aVbbccouksport
p628
aVbbcs
p629
aVbbq
p630
aVbckman
p631
aVbcm
p632
aVbeach
p633
aVbeaconsfield
p634
aVbeam
p635
aVbean
p636
aVbear
p637
aVbeard
p638
aVbeat
p639
aVbeaten
p640
aVbeatl
p641
aVbeatric
p642
aVbeauti
p643
aVbecam
p644
aVbeckham
p645
aVbecki
p646
aVbecom
p647
aVbed
p648
aVbedroom
p649
aVbedsid
p650
aVbee
p651
aVbeef
p652
aVbeekeep
p653
aVbeep
p654
aVbeer
p655
aVbefriend
p656
aVbegan
p657
aVbegin
p658
aVbegrudg
p659
aVbegun
p660
aVbehalf
p661
aVbehav
p662
aVbehaviour
p663
aVbehind
p664
aVbehold
p665
aVbeholden
p666
aVbeij
p667
aVbekel
p668
aVbelarus
p669
aVbelfast
p670
aVbelgian
p671
aVbeli
p672
aVbelief
p673
aVbeliev
p674
aVbelittl
p675
aVbelkin
p676
aVbell
p677
aVbellweth
p678
aVbelong
p679
aVbelov
p680
aVbelt
p681
aVben
p682
aVbench
p683
aVbenchmark
p684
aVbeneath
p685
aVbenefici
p686
aVbenefit
p687
aVbenevol
p688
aVbentek
p689
aVbercow
p690
aVberlin
p691
aVbernard
p692
aVbernhard
p693
aVberni
p694
aVberth
p695
aVbertrand
p696
aVbesid
p697
aVbest
p698
aVbest-known
p699
aVbest-perform
p700
aVbest-plac
p701
aVbest-sel
p702
aVbet
p703
aVbetter
p704
aVbetter-known
p705
aVbetter-off
p706
aVbeyond
p707
aVbfi
p708
aVbharara
p709
aVbianca
p710
aS'bias'
p711
aVbib
p712
aVbibl
p713
aVbiblic
p714
aVbicycl
p715
aVbid
p716
aVbiennial
p717
aVbiffi
p718
aVbig
p719
aVbig-rac
p720
aVbig-screen
p721
aVbig-spend
p722
aVbigg
p723
aVbigger
p724
aVbiggest
p725
aVbiggest-ev
p726
aVbike
p727
aVbilater
p728
aVbilel
p729
aVbill
p730
aVbillboard
p731
aVbilli
p732
aVbillion
p733
aVbillionair
p734
aVbin
p735
aVbind
p736
aVbing
p737
aVbingley
p738
aVbio-organ
p739
aVbiodegrad
p740
aVbiodivers
p741
aVbioga
p742
aVbiographi
p743
aVbiolog
p744
aVbiologist
p745
aVbiomass
p746
aVbiopsi
p747
aVbioreactor
p748
aVbipolar
p749
aVbirchal
p750
aVbird
p751
aVbird-bas
p752
aVbirdi
p753
aVbirdwatch
p754
aVbirmingham
p755
aVbiro
p756
aVbirth
p757
aVbirthday
p758
aVbirthplac
p759
aVbirthrat
p760
aVbishop
p761
aVbit
p762
aVbite
p763
aVbitter
p764
aVbittersweet
p765
aVbizarr
p766
aVbjorn
p767
aVblack
p768
aVblackberri
p769
aVblackburn
p770
aVblacktip
p771
aVbladder
p772
aVblade
p773
aVblair
p774
aVblairbrown
p775
aVblame
p776
aVblanchard
p777
aVblank
p778
aVblanket
p779
aVblasio
p780
aVblatant
p781
aVblazer
p782
aVblear
p783
aVbleed
p784
aVblend
p785
aVblew
p786
aVblick
p787
aVblight
p788
aVblind
p789
aVblink
p790
aVblixt
p791
aVblock
p792
aVblockag
p793
aVblockbust
p794
aVblog
p795
aVblogger
p796
aVblond
p797
aVblood
p798
aVblood-born
p799
aVbloodi
p800
aVbloomberg
p801
aVblossom
p802
aVblow
p803
aVblu
p804
aVblubber
p805
aVblue
p806
aVblue-lights-flash
p807
aVbluecoat
p808
aVbluefin
p809
aVbluefin-
p810
aVblueprint
p811
aVblueton
p812
aVblur
p813
aVblush
p814
aVbmc
p815
aVbmw
p816
aVbn
p817
aVbn-worth
p818
aVboard
p819
aVboardroom
p820
aVboat
p821
aVbob
p822
aVbodi
p823
aVbodleian
p824
aVbodycar
p825
aVboe
p826
aVboffi
p827
aVbog
p828
aVbogey
p829
aVbogon
p830
aVbogus
p831
aVbohem
p832
aVbohemia
p833
aVboil
p834
aVboiler
p835
aVbokova
p836
aVbolasi
p837
aVbold
p838
aVbolster
p839
aVbolt
p840
aVbomb
p841
aVbombard
p842
aVbond
p843
aVbondhold
p844
aVbone
p845
aVbonham
p846
aVbonhomi
p847
aVboni
p848
aVbonin
p849
aVbonker
p850
aVbook
p851
aVbookstor
p852
aVboom
p853
aVboomtown
p854
aVboon
p855
aVboonen
p856
aVboost
p857
aVboot
p858
aVbordeaux
p859
aVborder
p860
aVbore
p861
aVbori
p862
aVborn
p863
aVboro
p864
aVborrow
p865
aVborschberg
p866
aVborthwick
p867
aVboss
p868
aVboss-measur
p869
aVboston
p870
aVbotan
p871
aVbottl
p872
aVbottom
p873
aVbough
p874
aVbought
p875
aVbounc
p876
aVbound
p877
aVboundari
p878
aVbourda
p879
aVbournemouth
p880
aVbow
p881
aVbowen
p882
aVbox
p883
aVbox-to-box
p884
aVboxal
p885
aVboxer
p886
aVboy
p887
aVboyl
p888
aVbpi
p889
aVbrad
p890
aVbradford
p891
aVbradley
p892
aVbrailsford
p893
aVbrain
p894
aVbranch
p895
aVbrand
p896
aVbrandi
p897
aVbrandon
p898
aVbrash
p899
aVbrass
p900
aVbrave
p901
aVbraveri
p902
aVbrazil
p903
aVbrazilian
p904
aVbreach
p905
aVbread
p906
aVbreadth
p907
aVbreak
p908
aVbreakaway
p909
aVbreakdown
p910
aVbreakfast
p911
aVbreakthrough
p912
aVbreanna
p913
aVbreaststrok
p914
aVbreath
p915
aVbreathtak
p916
aVbred
p917
aVbreed
p918
aVbreeder
p919
aVbreez
p920
aVbrendan
p921
aVbrewin
p922
aVbrian
p923
aVbrick
p924
aVbridg
p925
aVbridget
p926
aVbridgewat
p927
aVbrief
p928
aVbriefer
p929
aVbriefli
p930
aVbrigad
p931
aVbrigg
p932
aVbright
p933
aVbrighter
p934
aVbrightest
p935
aVbrilliant
p936
aVbring
p937
aVbristol
p938
aVbritain
p939
aVbritannia
p940
aVbritish
p941
aVbritney
p942
aVbriton
p943
aVbritpop
p944
aVbroad
p945
aVbroadcast
p946
aVbroaden
p947
aVbroader
p948
aVbroadest
p949
aVbroke
p950
aVbroken
p951
aVbrom
p952
aVbromsgrov
p953
aVbronz
p954
aVbrood
p955
aVbrook
p956
aVbroon
p957
aVbrosnan
p958
aVbrother
p959
aVbrought
p960
aVbroughti
p961
aVbrown
p962
aVbrows
p963
aVbrowser
p964
aVbruce
p965
aVbruis
p966
aVbrunei
p967
aVbrunel
p968
aVbrush
p969
aVbrussel
p970
aVbrutal
p971
aVbst
p972
aVbt
p973
aVbubba
p974
aVbubbl
p975
aVbuckingham
p976
aVbuckinghamshir
p977
aVbuckl
p978
aVbuckland
p979
aVbud
p980
aVbudapest
p981
aVbudget
p982
aVbueno
p983
aVbuffer
p984
aVbuffini
p985
aVbug
p986
aVbugg
p987
aVbuild
p988
aVbuild-up
p989
aVbuilt
p990
aVbulg
p991
aVbulgaria
p992
aVbulgarian
p993
aVbulimia
p994
aVbulk
p995
aVbull
p996
aVbulldoz
p997
aVbullet
p998
aVbulli
p999
aVbullish
p1000
aVbump
p1001
aVbunch
p1002
aVbungler
p1003
aVbunk
p1004
aVbunker
p1005
aVburbidg
p1006
aVburden
p1007
aVbureau
p1008
aVbureaus
p1009
aVburger
p1010
aVburgo
p1011
aVburi
p1012
aVburial
p1013
aVburk
p1014
aVburkil
p1015
aVburkitt
p1016
aVburma
p1017
aVburn
p1018
aVburnley
p1019
aVburnt
p1020
aVburrow
p1021
aVbursari
p1022
aVburst
p1023
aVburundi
p1024
aVburwel
p1025
aVbus
p1026
aVbush
p1027
aVbusi
p1028
aVbusier
p1029
aVbusiness-polit
p1030
aVbusinessman
p1031
aVbustl
p1032
aVbuswel
p1033
aVbutcher
p1034
aVbutler-sloss
p1035
aVbutterfield
p1036
aVbutterfli
p1037
aVbutterworth
p1038
aVbutton
p1039
aVbuy
p1040
aVbuyer
p1041
aVbuzz
p1042
aVbva
p1043
aVby-catch
p1044
aVby-elect
p1045
aVbyaruhanga
p1046
aVbyrn
p1047
aVc
p1048
aVc-band
p1049
aVcaa
p1050
aVcab
p1051
aVcabaret
p1052
aVcabinet
p1053
aVcabl
p1054
aVcabrera
p1055
aVcaddi
p1056
aVcadel
p1057
aVcadmium
p1058
aVcafe
p1059
aVcage
p1060
aVcairn
p1061
aVcaitlin
p1062
aVcake
p1063
aVcakmak
p1064
aVcal
p1065
aVcalam
p1066
aVcalcul
p1067
aVcalderon
p1068
aVcaledonia
p1069
aVcaledonian
p1070
aVcalendar
p1071
aVcalf
p1072
aVcalibr
p1073
aVcalifornia
p1074
aVcalifornia-bas
p1075
aVcalifornian
p1076
aVcall
p1077
aVcallard
p1078
aVcallow
p1079
aVcalm
p1080
aVcalmer
p1081
aVcalori
p1082
aVcalv
p1083
aVcalvari
p1084
aVcalvin
p1085
aVcambodia
p1086
aVcambridg
p1087
aVcambridgeshir
p1088
aVcame
p1089
aVcamera
p1090
aVcameraman
p1091
aVcameron
p1092
aVcamp
p1093
aVcampaign
p1094
aVcampbel
p1095
aVcampus
p1096
aVcan-do
p1097
aVcanada
p1098
aVcanadian
p1099
aVcanal
p1100
aVcancel
p1101
aVcancellara
p1102
aVcancer
p1103
aVcandid
p1104
aVcane
p1105
aVcanin
p1106
aVcanist
p1107
aVcannot
p1108
aVcant
p1109
aVcanteen
p1110
aVcap
p1111
aVcapabl
p1112
aVcapac
p1113
aVcapit
p1114
aVcapita
p1115
aVcapitalis
p1116
aVcapitalist
p1117
aVcappuccino
p1118
aVcaprici
p1119
aVcaptain
p1120
aVcaptur
p1121
aVcar
p1122
aVcarbohydr
p1123
aVcarbon
p1124
aVcarbon-captur
p1125
aVcarbonis
p1126
aVcard
p1127
aVcardersu
p1128
aVcardiff
p1129
aVcardiologist
p1130
aVcare
p1131
aVcareer
p1132
aVcarer
p1133
aVcarey
p1134
aVcaribbean
p1135
aVcarl
p1136
aVcarlisl
p1137
aVcarlo
p1138
aVcarlton
p1139
aVcarmak
p1140
aVcarmichael
p1141
aVcarney
p1142
aVcarnivor
p1143
aVcarol
p1144
aVcarolin
p1145
aVcarolina
p1146
aVcarpet
p1147
aVcarri
p1148
aVcarriag
p1149
aVcarrier
p1150
aVcarswel
p1151
aVcart
p1152
aVcarter
p1153
aVcartilag
p1154
aVcartoon
p1155
aVcartoonist
p1156
aVcarv
p1157
aVcarwyn
p1158
aVcas
p1159
aVcase
p1160
aVcash
p1161
aVcasper
p1162
aVcassandra
p1163
aVcassett
p1164
aVcast
p1165
aVcastl
p1166
aVcastleford
p1167
aVcastr
p1168
aVcataclysm
p1169
aVcatalan
p1170
aVcatalyst
p1171
aVcatastroph
p1172
aVcatch
p1173
aVcatch-and-kil
p1174
aVcatchphras
p1175
aVcategor
p1176
aVcategori
p1177
aVcater
p1178
aVcathedr
p1179
aVcatherin
p1180
aVcathol
p1181
aVcattl
p1182
aVcaught
p1183
aVcaus
p1184
aVcauseallow
p1185
aVcaution
p1186
aVcautious
p1187
aVcaveat
p1188
aVcavern
p1189
aVcaviti
p1190
aVcbe
p1191
aVcbi
p1192
aVcbs
p1193
aVceas
p1194
aVceleb
p1195
aVcelebr
p1196
aVcelebratori
p1197
aVcelesti
p1198
aVcelia
p1199
aVcell
p1200
aVcellan-jon
p1201
aVcemeteri
p1202
aVcensorship
p1203
aVcensus
p1204
aVcent
p1205
aVcentenari
p1206
aVcenter
p1207
aVcentr
p1208
aVcentral
p1209
aVcentre-back
p1210
aVcentre-ground
p1211
aVcentre-right
p1212
aVcentrica
p1213
aVcenturi
p1214
aVceo
p1215
aVceremoni
p1216
aVcertain
p1217
aVcertainti
p1218
aVcertif
p1219
aVcertifi
p1220
aVcervic
p1221
aVchad
p1222
aVchaebol
p1223
aVchain
p1224
aVchair
p1225
aVchairman
p1226
aVchakrabarti
p1227
aVchalleng
p1228
aVchalobah
p1229
aVchamakh
p1230
aVchampagn
p1231
aVchampion
p1232
aVchampionship
p1233
aVchanc
p1234
aVchancellor
p1235
aVchang
p1236
aVchange-rel
p1237
aVchannel
p1238
aVchant
p1239
aVchap
p1240
aVchapter
p1241
aVchar
p1242
aVcharact
p1243
aVcharacteris
p1244
aVcharacterist
p1245
aVcharcoal
p1246
aVcharcoal-co
p1247
aVcharg
p1248
aVcharisma
p1249
aVchariti
p1250
aVcharl
p1251
aVcharli
p1252
aVcharlott
p1253
aVcharlton
p1254
aVcharm
p1255
aVcharnvit
p1256
aVchart
p1257
aVchart-top
p1258
aVcharter
p1259
aVchartier
p1260
aVchase
p1261
aVchaser
p1262
aVchastiti
p1263
aVchat
p1264
aVchatter
p1265
aVchatterley
p1266
aVcheap
p1267
aVcheaper
p1268
aVcheapest
p1269
aVcheck
p1270
aVcheddington
p1271
aVcheer
p1272
aVchees
p1273
aVchef
p1274
aVchelsea
p1275
aVchelseaeverton
p1276
aVcheltenham
p1277
aVchemic
p1278
aVchemistri
p1279
aVchemotherapi
p1280
aVchen
p1281
aVchequ
p1282
aVchequer
p1283
aVcherri
p1284
aVcheryl
p1285
aVcheshir
p1286
aVchest
p1287
aVchicago
p1288
aVchick
p1289
aVchick-pea
p1290
aVchicken
p1291
aVchickpea
p1292
aVchief
p1293
aVchild
p1294
aVchild-l
p1295
aVchildbirth
p1296
aVchildcar
p1297
aVchildhood
p1298
aVchildmind
p1299
aVchildren
p1300
aVchilean
p1301
aVchill
p1302
aVchiltern
p1303
aVchime
p1304
aVchin
p1305
aVchina
p1306
aVchines
p1307
aVchinese-singaporean
p1308
aVchinese-speak
p1309
aVching-fu
p1310
aVchingford
p1311
aVchip
p1312
aVchivenor
p1313
aVchm
p1314
aVchocol
p1315
aVchoic
p1316
aVchoir
p1317
aVchoked-off
p1318
aVchomp
p1319
aVchoos
p1320
aVchoosi
p1321
aVchop
p1322
aVchose
p1323
aVchosen
p1324
aVchou
p1325
aVchoudhri
p1326
aVchow
p1327
aVchris
p1328
aVchrist
p1329
aVchristian
p1330
aVchristin
p1331
aVchristina
p1332
aVchristma
p1333
aVchristoph
p1334
aVchrome-trim
p1335
aVchromosom
p1336
aVchronic
p1337
aVchuck
p1338
aVchukwumerij
p1339
aVchun-hsien
p1340
aVchunk
p1341
aVchurch
p1342
aVciaran
p1343
aVcierzniak
p1344
aVcieslak
p1345
aVciftci
p1346
aVcigarett
p1347
aVcinderella
p1348
aVcindi
p1349
aVcinema
p1350
aVcinematograph
p1351
aVcinematographi
p1352
aVcircl
p1353
aVcircul
p1354
aVcircular
p1355
aVcircumst
p1356
aVcite
p1357
aVciti
p1358
aVcitigroup
p1359
aVcitizen
p1360
aVcityc
p1361
aVcityscop
p1362
aVcivil
p1363
aVclacton
p1364
aVclaim
p1365
aVclaimant
p1366
aVclam
p1367
aVclamp
p1368
aVclan-bas
p1369
aVclanci
p1370
aVclare
p1371
aVclaret
p1372
aVclark
p1373
aVclass
p1374
aVclassic
p1375
aVclassicist
p1376
aVclassifi
p1377
aVclassroom
p1378
aVclaud
p1379
aVclaudia
p1380
aVclaus
p1381
aVclayton
p1382
aVclean
p1383
aVcleaner
p1384
aVcleanest
p1385
aVclear
p1386
aVclearer
p1387
aVclegg
p1388
aVclement
p1389
aVclever
p1390
aVcleverest
p1391
aVclichi
p1392
aVclick
p1393
aVclient
p1394
aVcliff
p1395
aVclifton
p1396
aVclimat
p1397
aVclimax
p1398
aVclimb
p1399
aVclinch
p1400
aVclinic
p1401
aVclip
p1402
aVclock
p1403
aVclose
p1404
aVclose-knit
p1405
aVcloser
p1406
aVclosest
p1407
aVclosur
p1408
aVcloth
p1409
aVcloud
p1410
aVcloudfar
p1411
aVcloudi
p1412
aVclough
p1413
aVclout
p1414
aVclub
p1415
aVclubhous
p1416
aVclue
p1417
aVclutch
p1418
aVclwyd
p1419
aVclyde
p1420
aVclyro
p1421
aVcm
p1422
aVcml
p1423
aVco
p1424
aVco-author
p1425
aVco-chief
p1426
aVco-editor
p1427
aVco-found
p1428
aVco-op
p1429
aVco-oper
p1430
aVco-ordin
p1431
aVco-present
p1432
aVco-star
p1433
aVco-writ
p1434
aVco-wrot
p1435
aVcoach
p1436
aVcoal
p1437
aVcoal-export
p1438
aVcoal-fir
p1439
aVcoal-min
p1440
aVcoalit
p1441
aVcoast
p1442
aVcoastal
p1443
aVcobbleston
p1444
aVcocain
p1445
aVcochlear
p1446
aVcock-up
p1447
aVcocker
p1448
aVcockeril
p1449
aVcockpit
p1450
aVcoconut
p1451
aVcode
p1452
aVcodenomicon
p1453
aVcoder
p1454
aVcoderdojo
p1455
aVcoen
p1456
aVcoercion
p1457
aVcoffe
p1458
aVcoffeestal
p1459
aVcognit
p1460
aVcohabit
p1461
aVcohen
p1462
aVcoher
p1463
aVcohort
p1464
aVcoin
p1465
aVcoincid
p1466
aVcolbert
p1467
aVcolchest
p1468
aVcold
p1469
aVcolin
p1470
aVcollabor
p1471
aVcollaps
p1472
aVcollar
p1473
aVcollat
p1474
aVcollater
p1475
aVcolleagu
p1476
aVcollect
p1477
aVcolleg
p1478
aVcollett
p1479
aVcollid
p1480
aVcollis
p1481
aVcollud
p1482
aVcollus
p1483
aVcolombia
p1484
aVcolonel
p1485
aVcoloni
p1486
aVcoloss
p1487
aVcolour
p1488
aVcolourist
p1489
aVcoltran
p1490
aVcolumbia
p1491
aVcolumn
p1492
aVcolumnist
p1493
aVcombat
p1494
aVcombin
p1495
aVcome
p1496
aVcomeback
p1497
aVcomedi
p1498
aVcomedian
p1499
aVcomfort
p1500
aVcomic
p1501
aVcommand
p1502
aVcommando
p1503
aVcomment
p1504
aVcommentari
p1505
aVcommerci
p1506
aVcommercialis
p1507
aVcommercially-avail
p1508
aVcommiss
p1509
aVcommission
p1510
aVcommit
p1511
aVcommitte
p1512
aVcommoditis
p1513
aVcommon
p1514
aVcommonest
p1515
aVcommonplac
p1516
aVcommonwealth
p1517
aVcommunic
p1518
aVcommunism
p1519
aVcommunist
p1520
aVcommuniti
p1521
aVcommunity-own
p1522
aVcommunity-wid
p1523
aVcommut
p1524
aVcompact
p1525
aVcompani
p1526
aVcompanion
p1527
aVcompar
p1528
aVcomparison
p1529
aVcompartmentalis
p1530
aVcompass
p1531
aVcompatriot
p1532
aVcompel
p1533
aVcompens
p1534
aVcompet
p1535
aVcompetit
p1536
aVcompetitor
p1537
aVcompil
p1538
aVcomplac
p1539
aVcomplain
p1540
aVcomplaint
p1541
aVcomplement
p1542
aVcomplementari
p1543
aVcomplet
p1544
aVcomplex
p1545
aVcomplexion
p1546
aVcompli
p1547
aVcomplic
p1548
aVcompliment
p1549
aVcompon
p1550
aVcompos
p1551
aVcomposit
p1552
aVcomposur
p1553
aVcomprehens
p1554
aVcompris
p1555
aVcompromis
p1556
aVcompuls
p1557
aVcompulsori
p1558
aVcomput
p1559
aVcomr
p1560
aVcon
p1561
aVconakri
p1562
aVconced
p1563
aVconceiv
p1564
aVconcentr
p1565
aVconcept
p1566
aVconcern
p1567
aVconcert
p1568
aVconcess
p1569
aVconclud
p1570
aVconclus
p1571
aVconcret
p1572
aVcondemn
p1573
aVcondit
p1574
aVcondon
p1575
aVcondor
p1576
aVconduc
p1577
aVconduct
p1578
aVcone
p1579
aVconfeder
p1580
aVconfer
p1581
aVconferenc
p1582
aVconfess
p1583
aVconfid
p1584
aVconfidenti
p1585
aVconfirm
p1586
aVconflict
p1587
aVconform
p1588
aVconfront
p1589
aVconfus
p1590
aVconglomer
p1591
aVcongo
p1592
aVcongreg
p1593
aVcongress
p1594
aVconjunct
p1595
aVconnect
p1596
aVconnecticut
p1597
aVconnelli
p1598
aVconor
p1599
aVconquer
p1600
aVconscienc
p1601
aVconscious
p1602
aVconsecut
p1603
aVconsensu
p1604
aVconsensus
p1605
aVconsent
p1606
aVconsequ
p1607
aVconserv
p1608
aVconsid
p1609
aVconsider
p1610
aVconsign
p1611
aVconsist
p1612
aVconsitut
p1613
aVconsolid
p1614
aVconspicu
p1615
aVconspir
p1616
aVconspiraci
p1617
aVconstanc
p1618
aVconstant
p1619
aVconstitu
p1620
aVconstitut
p1621
aVconstrain
p1622
aVconstraint
p1623
aVconstruct
p1624
aVconsult
p1625
aVconsum
p1626
aVconsumer
p1627
aVconsumpt
p1628
aVcontact
p1629
aVcontagi
p1630
aVcontain
p1631
aVcontamin
p1632
aVcontemporari
p1633
aVcontend
p1634
aVcontent
p1635
aVcontenti
p1636
aVcontest
p1637
aVcontext
p1638
aVcontin
p1639
aVcontinent
p1640
aVcontinu
p1641
aVcontracept
p1642
aVcontract
p1643
aVcontractor
p1644
aVcontradict
p1645
aVcontrast
p1646
aVcontribut
p1647
aVcontrol
p1648
aVcontroversi
p1649
aVconvent
p1650
aVconvers
p1651
aVconvert
p1652
aVconvey
p1653
aVconvict
p1654
aVconvinc
p1655
aVcook
p1656
aVcookeri
p1657
aVcool
p1658
aVcoolest
p1659
aVcoomb
p1660
aVcooper
p1661
aVcoordin
p1662
aVcopa
p1663
aVcopacabana
p1664
aVcope
p1665
aVcopeland
p1666
aVcopernicus
p1667
aVcopi
p1668
aVcopyright
p1669
aVcoral
p1670
aVcore
p1671
aVcork
p1672
aVcorn
p1673
aVcornel
p1674
aVcorner
p1675
aVcornerston
p1676
aVcornet
p1677
aVcorollari
p1678
aVcoron
p1679
aVcorpor
p1680
aVcorrect
p1681
aVcorrel
p1682
aVcorrespond
p1683
aVcorros
p1684
aVcorrupt
p1685
aVcosmic
p1686
aVcosmolog
p1687
aVcosmologist
p1688
aVcosmopolitan
p1689
aS'cosmos'
p1690
aVcost
p1691
aVcost-of-liv
p1692
aVcotteslo
p1693
aVcotton
p1694
aVcould
p1695
aVcouldnt
p1696
aVcouncil
p1697
aVcounsel
p1698
aVcount
p1699
aVcountdown
p1700
aVcounter
p1701
aVcounter-attack
p1702
aVcounterpart
p1703
aVcounterproduct
p1704
aVcounti
p1705
aVcountless
p1706
aVcountri
p1707
aVcountryman
p1708
aVcountrysid
p1709
aVcoup
p1710
aVcoupl
p1711
aVcourag
p1712
aVcours
p1713
aVcourse-record
p1714
aVcoursera
p1715
aVcourt
p1716
aVcourtney
p1717
aVcousin
p1718
aVcoutinho
p1719
aVcoventri
p1720
aVcover
p1721
aVcoverag
p1722
aVcovet
p1723
aVcowboy
p1724
aVcppr
p1725
aVcps
p1726
aVcrabbi
p1727
aVcrack
p1728
aVcrackdown
p1729
aVcracker
p1730
aVcraft
p1731
aVcraig
p1732
aVcramp
p1733
aVcrane
p1734
aVcranston
p1735
aVcrash
p1736
aVcrave
p1737
aVcrawford
p1738
aVcrawl
p1739
aVcrazi
p1740
aVcreak
p1741
aVcream
p1742
aVcreat
p1743
aVcreation
p1744
aVcreativ
p1745
aVcreator
p1746
aVcredibl
p1747
aVcredit
p1748
aVcreditor
p1749
aVcreditworthi
p1750
aVcreek
p1751
aVcreep
p1752
aVcrenat
p1753
aVcrenshaw
p1754
aVcrestfallen
p1755
aVcrevic
p1756
aVcrew
p1757
aVcri
p1758
aVcrib
p1759
aVcricket
p1760
aVcridland
p1761
aVcrime
p1762
aVcrimea
p1763
aVcrimea-bas
p1764
aVcrimean
p1765
aVcrimin
p1766
aVcriminalis
p1767
aVcrisi
p1768
aVcrisp
p1769
aVcriss-cross
p1770
aVcriteria
p1771
aVcritic
p1772
aVcriticis
p1773
aVcrochet
p1774
aVcrocodil
p1775
aVcrosland
p1776
aVcross
p1777
aVcross-bord
p1778
aVcross-calibr
p1779
aVcross-curr
p1780
aVcross-field
p1781
aVcross-govern
p1782
aVcross-parti
p1783
aVcrossbar
p1784
aVcrouch
p1785
aVcrow
p1786
aVcrowd
p1787
aVcrowdcub
p1788
aVcrowdfund
p1789
aVcrown
p1790
aVcrucial
p1791
aVcrucibl
p1792
aVcruelti
p1793
aVcrunch
p1794
aVcrush
p1795
aVcrust
p1796
aVcrutchlow
p1797
aVcryptograph
p1798
aVcrystal
p1799
aVcrystallis
p1800
aVcsiro
p1801
aVcube
p1802
aVcubic
p1803
aVcull
p1804
aVculmin
p1805
aVcultur
p1806
aVcum
p1807
aVcumbria
p1808
aVcumul
p1809
aVcup
p1810
aVcup-win
p1811
aVcupboard
p1812
aVcupola
p1813
aVcure
p1814
aVcurios
p1815
aVcurran
p1816
aVcurrenc
p1817
aVcurrent
p1818
aVcurriculum
p1819
aVcurs
p1820
aVcursori
p1821
aVcurtail
p1822
aVcurti
p1823
aVcurv
p1824
aVcustom
p1825
aVcustomis
p1826
aVcut
p1827
aVcutaway
p1828
aVcutler
p1829
aVcutting-edg
p1830
aVcyber-attack
p1831
aVcyber-cop
p1832
aVcyber-espionag
p1833
aVcyber-secur
p1834
aVcyber-threat
p1835
aVcybercrimin
p1836
aVcyberspi
p1837
aVcycl
p1838
aVcyclist
p1839
aVcyclon
p1840
aVcymru
p1841
aVcynic
p1842
aVczech
p1843
aVczerski
p1844
aVd
p1845
aVd-scaffold
p1846
aVdad
p1847
aVdaddi
p1848
aVdaili
p1849
aVdakota
p1850
aVdale
p1851
aVdali
p1852
aVdamag
p1853
aVdame
p1854
aVdamien
p1855
aVdamn
p1856
aVdamon
p1857
aVdanc
p1858
aVdanger
p1859
aVdani
p1860
aVdaniel
p1861
aVdanilo
p1862
aVdanni
p1863
aVdara
p1864
aVdark
p1865
aVdarl
p1866
aVdarlia
p1867
aVdarmstadt
p1868
aVdarren
p1869
aVdart
p1870
aVdaryl
p1871
aVdash
p1872
aVdata
p1873
aVdata-relay
p1874
aVdatabas
p1875
aVdatacheck
p1876
aVdataset
p1877
aVdate
p1878
aVdaughter
p1879
aVdaunt
p1880
aVdave
p1881
aVdavey
p1882
aVdavi
p1883
aVdavid
p1884
aVdavington
p1885
aVdaw
p1886
aVdawesvill
p1887
aVdawn
p1888
aVdawson
p1889
aVday
p1890
aVday-long
p1891
aVday-to-day
p1892
aVdaytim
p1893
aVdazzl
p1894
aVdc
p1895
aVdcms
p1896
aVde
p1897
aVde-orbit
p1898
aVdead
p1899
aVdeadlin
p1900
aVdeadlock
p1901
aVdeaf
p1902
aVdeakin
p1903
aVdeal
p1904
aVdealt
p1905
aVdean
p1906
aVdeath
p1907
aVdebat
p1908
aVdebbi
p1909
aVdebilit
p1910
aVdeborah
p1911
aVdebri
p1912
aVdebt
p1913
aVdebut
p1914
aVdecad
p1915
aVdecarbonis
p1916
aVdecarteret
p1917
aVdecay
p1918
aVdecc
p1919
aVdeceas
p1920
aVdeceler
p1921
aVdecemb
p1922
aVdecent
p1923
aVdecentralis
p1924
aVdecid
p1925
aVdecis
p1926
aVdeclar
p1927
aVdeclin
p1928
aVdecommiss
p1929
aVdecoupl
p1930
aVdecreas
p1931
aVdecrypt
p1932
aVdedic
p1933
aVdeed
p1934
aVdeem
p1935
aVdeep
p1936
aVdeeper
p1937
aVdeepli
p1938
aVdeeply-held
p1939
aVdeer
p1940
aVdeezer
p1941
aVdefault
p1942
aVdefeat
p1943
aVdefect
p1944
aVdefenc
p1945
aVdefend
p1946
aVdefens
p1947
aVdefi
p1948
aVdeficit
p1949
aVdefin
p1950
aVdefinit
p1951
aVdeflat
p1952
aVdeflect
p1953
aVdeforest
p1954
aVdefra
p1955
aVdefunct
p1956
aVdegal
p1957
aVdegre
p1958
aVdel
p1959
aVdelaney
p1960
aVdelay
p1961
aVdelet
p1962
aVdelhi
p1963
aVdeliber
p1964
aVdelicaci
p1965
aVdelight
p1966
aVdelisi
p1967
aVdeliv
p1968
aVdeliveri
p1969
aVdell
p1970
aVdeloitt
p1971
aVdelph
p1972
aVdem
p1973
aVdemand
p1974
aVdemaret
p1975
aVdementia
p1976
aVdemich
p1977
aVdemis
p1978
aVdemocraci
p1979
aVdemocrat
p1980
aVdemograph
p1981
aVdemolish
p1982
aVdemolit
p1983
aVdemon
p1984
aVdemonstr
p1985
aVdench
p1986
aVdeni
p1987
aVdenmark
p1988
aVdenni
p1989
aVdenomin
p1990
aVdens
p1991
aVdent
p1992
aVdenud
p1993
aVdepart
p1994
aVdepartur
p1995
aVdepend
p1996
aVdepict
p1997
aVdeplet
p1998
aVdeploy
p1999
aVdeposit
p2000
aVdepositori
p2001
aVdepress
p2002
aVdeprioritis
p2003
aVdepriv
p2004
aVdeptford
p2005
aVdepth
p2006
aVdeput
p2007
aVdeputi
p2008
aVderang
p2009
aVderbi
p2010
aVderbyshir
p2011
aVderid
p2012
aVdesai
p2013
aVdescend
p2014
aVdescrib
p2015
aVdescript
p2016
aVdeserv
p2017
aVdesign
p2018
aVdesir
p2019
aVdesisa
p2020
aVdesist
p2021
aVdesk
p2022
aVdesktop
p2023
aVdesper
p2024
aVdespit
p2025
aVdestin
p2026
aVdestroy
p2027
aVdestruct
p2028
aVdetail
p2029
aVdetect
p2030
aVdetector
p2031
aVdetent
p2032
aVdeter
p2033
aVdeterior
p2034
aVdetermin
p2035
aVdeterr
p2036
aVdeton
p2037
aVdevalu
p2038
aVdevast
p2039
aVdevelop
p2040
aVdevelopment
p2041
aVdevic
p2042
aVdevis
p2043
aVdevolut
p2044
aVdevolv
p2045
aVdevon
p2046
aVdevot
p2047
aVdevote
p2048
aVdexter
p2049
aVdextros
p2050
aVdey
p2051
aVdfe
p2052
aVdhabi
p2053
aVdiabet
p2054
aVdiageo
p2055
aVdiagnos
p2056
aVdiagnosi
p2057
aVdiagnost
p2058
aVdial-up
p2059
aVdialogu
p2060
aVdiamet
p2061
aVdiari
p2062
aVdiarrhoea
p2063
aVdiaspora
p2064
aVdibaba
p2065
aVdickinson
p2066
aVdictat
p2067
aVdictionari
p2068
aVdidnt
p2069
aVdie
p2070
aVdiego
p2071
aVdiet
p2072
aVdietician
p2073
aVdiffer
p2074
aVdifferenti
p2075
aVdifferentiation-bas
p2076
aVdifficult
p2077
aVdifficulti
p2078
aVdig
p2079
aVdigger
p2080
aVdigit
p2081
aVdignitari
p2082
aVdigniti
p2083
aVdikgacoi
p2084
aVdilemma
p2085
aVdilig
p2086
aVdilut
p2087
aVdimens
p2088
aVdimi
p2089
aVdiminish
p2090
aVdimitrio
p2091
aVdimon
p2092
aVdine
p2093
aVdinner
p2094
aVdinosaur
p2095
aVdiocesan
p2096
aVdiorama
p2097
aVdioxid
p2098
aVdip
p2099
aVdiplomat
p2100
aVdirect
p2101
aVdirector
p2102
aVdirector-gener
p2103
aVdirti
p2104
aVdirtiest
p2105
aVdisabl
p2106
aVdisadvantag
p2107
aVdisagr
p2108
aVdisagre
p2109
aVdisallow
p2110
aVdisappear
p2111
aVdisappoint
p2112
aVdisapprov
p2113
aVdisast
p2114
aVdisastr
p2115
aVdisband
p2116
aVdiscern
p2117
aVdisciplin
p2118
aVdisciplinari
p2119
aVdisclos
p2120
aVdisclosur
p2121
aVdisco
p2122
aVdisconnect
p2123
aVdiscont
p2124
aVdiscount
p2125
aVdiscourag
p2126
aVdiscours
p2127
aVdiscov
p2128
aVdiscoveri
p2129
aVdiscredit
p2130
aVdiscreet
p2131
aVdiscrimin
p2132
aVdiscriminatori
p2133
aVdiscuss
p2134
aVdiseas
p2135
aVdisease-caus
p2136
aVdisengag
p2137
aVdisguis
p2138
aVdisgust
p2139
aVdish
p2140
aVdisillus
p2141
aVdislik
p2142
aVdisloc
p2143
aVdislodg
p2144
aVdismantl
p2145
aVdismiss
p2146
aVdisord
p2147
aVdispar
p2148
aVdisparag
p2149
aVdisplay
p2150
aVdispos
p2151
aVdisput
p2152
aVdisregard
p2153
aVdisrupt
p2154
aVdistanc
p2155
aVdistant
p2156
aVdistil
p2157
aVdistinct
p2158
aVdistinguish
p2159
aVdistract
p2160
aVdistress
p2161
aVdistribut
p2162
aVdistrict
p2163
aVdisturb
p2164
aVditalia
p2165
aVditch
p2166
aVdive
p2167
aVdiver
p2168
aVdiverg
p2169
aVdivers
p2170
aVdiversif
p2171
aVdiversifi
p2172
aVdivert
p2173
aVdivid
p2174
aVdivis
p2175
aVdivorc
p2176
aVdivulg
p2177
aVdixon
p2178
aVdj
p2179
aVdns
p2180
aVdo-it-yourself
p2181
aVdobson
p2182
aVdock
p2183
aVdockyard
p2184
aVdoctor
p2185
aVdocument
p2186
aVdocumentari
p2187
aVdodman
p2188
aVdodo
p2189
aVdodwel
p2190
aVdoesnt
p2191
aVdog
p2192
aVdogwood
p2193
aVdojo
p2194
aVdoksi
p2195
aVdoll
p2196
aVdollar
p2197
aVdollop
p2198
aVdolphin
p2199
aVdomain
p2200
aVdomest
p2201
aVdomin
p2202
aVdominion
p2203
aVdonald
p2204
aVdonaldson
p2205
aVdonat
p2206
aVdone
p2207
aVdonetsk
p2208
aVdonor
p2209
aVdont
p2210
aVdoodl
p2211
aVdoolittl
p2212
aVdoom
p2213
aVdoor
p2214
aVdordain
p2215
aVdori
p2216
aVdormant
p2217
aVdormitori
p2218
aVdorn
p2219
aVdoron
p2220
aVdorothi
p2221
aVdoubl
p2222
aVdouble-doubl
p2223
aVdouble-glaz
p2224
aVdoubt
p2225
aVdoug
p2226
aVdougla
p2227
aVdovizioso
p2228
aVdow
p2229
aVdown
p2230
aVdownlink
p2231
aVdownload
p2232
aVdownplay
p2233
aVdownturn
p2234
aVdowsett
p2235
aVdozen
p2236
aVdp
p2237
aVdpp
p2238
aVdr
p2239
aVdraft
p2240
aVdrag
p2241
aVdraghi
p2242
aVdrake
p2243
aVdrama
p2244
aVdramat
p2245
aVdrastic
p2246
aVdraw
p2247
aVdrawn
p2248
aVdread
p2249
aVdreadlock
p2250
aVdream
p2251
aVdress
p2252
aVdrew
p2253
aVdri
p2254
aVdrink
p2255
aVdrive
p2256
aVdrive-bi
p2257
aVdriven
p2258
aVdriver
p2259
aVdrone
p2260
aVdrool
p2261
aVdrop
p2262
aVdrop-out
p2263
aVdrove
p2264
aVdrown
p2265
aVdrug
p2266
aVdrum
p2267
aVdrumlin
p2268
aVdrummer
p2269
aVdrummey
p2270
aVdrunk
p2271
aVdub
p2272
aVdubai
p2273
aVdublin
p2274
aVducati
p2275
aVdudley
p2276
aVdue
p2277
aVduff
p2278
aVdugong
p2279
aVdugout
p2280
aVduke
p2281
aVdumb
p2282
aVdump
p2283
aVduncan
p2284
aVdunde
p2285
aVdune
p2286
aVdunfermlin
p2287
aVdung
p2288
aVduo
p2289
aVduplic
p2290
aVdurham
p2291
aVdust
p2292
aVdusti
p2293
aVdutchman
p2294
aVduti
p2295
aVdwindl
p2296
aVdyke
p2297
aVdymond
p2298
aVdynam
p2299
aVdysfunct
p2300
aVdyson
p2301
aVe-librari
p2302
aVeager
p2303
aVeagl
p2304
aVear
p2305
aVearl
p2306
aS'earli'
p2307
aVearlier
p2308
aVearliest
p2309
aVearly-year
p2310
aVearmark
p2311
aVearn
p2312
aVearner
p2313
aVearth
p2314
aVearth-observ
p2315
aVearthen
p2316
aVearthquak
p2317
aVearwax
p2318
aVeas
p2319
aVeasi
p2320
aVeasier
p2321
aVeasiest
p2322
aVeasili
p2323
aVeast
p2324
aVeastend
p2325
aVeaster
p2326
aVeastern
p2327
aVeat
p2328
aVeaten
p2329
aVeater
p2330
aVeav
p2331
aVeavesdrop
p2332
aVebay
p2333
aVebola
p2334
aVecb
p2335
aVeccl
p2336
aVechelon
p2337
aVecho
p2338
aVechosound
p2339
aVeckert
p2340
aVeckhardt
p2341
aVeckler
p2342
aVeco-volunt
p2343
aVecolog
p2344
aVecologist
p2345
aVeconom
p2346
aVeconomi
p2347
aVeconomist
p2348
aVecosystem
p2349
aVed
p2350
aVeddi
p2351
aVedg
p2352
aVedict
p2353
aVedinburgh
p2354
aVedinburgh-born
p2355
aVedit
p2356
aVeditor
p2357
aVedmund
p2358
aVeduc
p2359
aVeducationalist
p2360
aVedward
p2361
aVeeri
p2362
aVeffect
p2363
aVefficaci
p2364
aVeffici
p2365
aVeffort
p2366
aVegal
p2367
aVegalitarian
p2368
aVegg
p2369
aVeifl
p2370
aVeight
p2371
aVeighth
p2372
aVeileen
p2373
aVeisenberg
p2374
aVeither
p2375
aVel
p2376
aVelastica
p2377
aVelbow
p2378
aVelder
p2379
aVeldest
p2380
aVelect
p2381
aVelector
p2382
aVelectr
p2383
aVelectrician
p2384
aVelectron
p2385
aVelectronica
p2386
aVeleg
p2387
aVelement
p2388
aVelementari
p2389
aVelev
p2390
aVeleven
p2391
aVeleveur
p2392
aVelimin
p2393
aVelit
p2394
aVeliza
p2395
aVelli
p2396
aVelodi
p2397
aVeloqu
p2398
aVeloran
p2399
aVels
p2400
aVelsewher
p2401
aVelud
p2402
aVelys
p2403
aVemail
p2404
aVembark
p2405
aVembarrass
p2406
aVembassi
p2407
aVembed
p2408
aVembellish
p2409
aVembrac
p2410
aVemerald
p2411
aVemerg
p2412
aVemeritus
p2413
aVemigr
p2414
aVemiss
p2415
aVemissari
p2416
aVemit
p2417
aVemm
p2418
aVemma
p2419
aVemmanuel
p2420
aVemmi
p2421
aVemmy-win
p2422
aVemot
p2423
aVemotionally-charg
p2424
aVempathet
p2425
aVempathi
p2426
aVemphasi
p2427
aVemphasis
p2428
aVemphat
p2429
aVempir
p2430
aVemploy
p2431
aVemploye
p2432
aVempti
p2433
aVemul
p2434
aVen
p2435
aVenabl
p2436
aVenclosur
p2437
aVencount
p2438
aVencourag
p2439
aVencrypt
p2440
aVend
p2441
aVend-of-cours
p2442
aVend-of-lif
p2443
aVendang
p2444
aVendear
p2445
aVendeavour
p2446
aVendem
p2447
aVendless
p2448
aVendur
p2449
aVendura
p2450
aVenemi
p2451
aVenerget
p2452
aVenergi
p2453
aVenergiewend
p2454
aVenergy-effici
p2455
aVenergy-hungri
p2456
aVenergy-rel
p2457
aVenforc
p2458
aVengag
p2459
aVengin
p2460
aVengland
p2461
aVenglish
p2462
aVenglishman
p2463
aVengulf
p2464
aVenhanc
p2465
aVenigmat
p2466
aVenjoy
p2467
aVenlighten
p2468
aVenorm
p2469
aVenough
p2470
aVenriqu
p2471
aVenrol
p2472
aVensur
p2473
aVenter
p2474
aVenterpris
p2475
aVentertain
p2476
aVenthus
p2477
aVenthusiasm
p2478
aVenthusiast
p2479
aVentir
p2480
aVentiti
p2481
aVentitl
p2482
aVentrench
p2483
aVentrepreneur
p2484
aVentrepreneurship
p2485
aVentri
p2486
aVentwin
p2487
aVenvi
p2488
aVenviron
p2489
aVenvironment
p2490
aVenvironmentalist
p2491
aVenvironmentally-friend
p2492
aVenvisag
p2493
aVeo
p2494
aVepic
p2495
aVepicentr
p2496
aVepilepsi
p2497
aVepisod
p2498
aVepitomis
p2499
aVepstein
p2500
aVequal
p2501
aVequalis
p2502
aVequat
p2503
aVequatori
p2504
aVequip
p2505
aVequiti
p2506
aVequival
p2507
aVera
p2508
aVerad
p2509
aVeric
p2510
aVerick
p2511
aVerni
p2512
aVerot
p2513
aVerror
p2514
aVerupt
p2515
aVesa
p2516
aVescal
p2517
aVescap
p2518
aVesdail
p2519
aVesnouf
p2520
aVespargaro
p2521
aVesparron
p2522
aVespeci
p2523
aVessenc
p2524
aVessenti
p2525
aVessex
p2526
aVestablish
p2527
aVestat
p2528
aVesteem
p2529
aVestev
p2530
aVestim
p2531
aVestonia
p2532
aVet
p2533
aVetc
p2534
aVeth
p2535
aVethan
p2536
aVethic
p2537
aVethiopia
p2538
aVethiopian
p2539
aVetihad
p2540
aVetiquett
p2541
aVetonian
p2542
aVeu
p2543
aVeu-india
p2544
aVeuan
p2545
aVeucharist
p2546
aVeuro
p2547
aVeurop
p2548
aVeuropa
p2549
aVeuropean
p2550
aVeurophil
p2551
aVeuroscept
p2552
aVeurozon
p2553
aVeurythm
p2554
aVeurythmicss
p2555
aVeus
p2556
aVevad
p2557
aVevalu
p2558
aVevan
p2559
aVevangel
p2560
aVevangelo
p2561
aVevanss
p2562
aVevapor
p2563
aVevas
p2564
aVevelyn
p2565
aVeven
p2566
aVevent
p2567
aVeventu
p2568
aVever
p2569
aVeveri
p2570
aVeverton
p2571
aVeverybodi
p2572
aVeveryday
p2573
aVeveryon
p2574
aVeveryth
p2575
aVeverywher
p2576
aVevi
p2577
aVevict
p2578
aVevid
p2579
aVevidenti
p2580
aVevok
p2581
aVevolut
p2582
aVevolutionari
p2583
aVevolv
p2584
aVewe
p2585
aVex-european
p2586
aVex-memb
p2587
aVexact
p2588
aVexam
p2589
aVexamin
p2590
aVexampl
p2591
aVexasper
p2592
aVexceed
p2593
aVexcel
p2594
aVexcept
p2595
aVexcess
p2596
aVexchang
p2597
aVexchequ
p2598
aVexcit
p2599
aVexclud
p2600
aVexclus
p2601
aVexcus
p2602
aVexecut
p2603
aVexecution
p2604
aVexecution-
p2605
aVexecution-ori
p2606
aVexempt
p2607
aVexercis
p2608
aVexet
p2609
aVexhaust
p2610
aVexhibit
p2611
aVexhilar
p2612
aVexist
p2613
aVexit
p2614
aVexot
p2615
aVexpand
p2616
aVexpans
p2617
aVexpect
p2618
aVexpens
p2619
aVexperi
p2620
aVexperienc
p2621
aVexpert
p2622
aVexpertis
p2623
aVexplain
p2624
aVexplan
p2625
aVexplicit
p2626
aVexplod
p2627
aVexploit
p2628
aVexplor
p2629
aVexplos
p2630
aVexport
p2631
aVexpos
p2632
aVexposur
p2633
aVexpress
p2634
aVextend
p2635
aVextens
p2636
aVextent
p2637
aVexterior
p2638
aVextern
p2639
aVextinct
p2640
aVextra
p2641
aVextra-tim
p2642
aVextract
p2643
aVextracurricular
p2644
aVextraordinari
p2645
aVextraordinarili
p2646
aVextrem
p2647
aVextremist
p2648
aVeye
p2649
aVeye-contact
p2650
aVeyebal
p2651
aVeyewit
p2652
aVf-secur
p2653
aVfa
p2654
aVfabian
p2655
aVfabius
p2656
aVfabl
p2657
aVfabric
p2658
aVfabul
p2659
aVface
p2660
aVface-to-fac
p2661
aVfacebook
p2662
aVfachi
p2663
aVfacial
p2664
aVfacil
p2665
aVfacilit
p2666
aVfact
p2667
aVfacto
p2668
aVfactor
p2669
aVfactori
p2670
aVfactual
p2671
aVfaculti
p2672
aVfade
p2673
aVfail
p2674
aVfailur
p2675
aVfaint
p2676
aVfair
p2677
aVfairer
p2678
aVfairfax
p2679
aVfairi
p2680
aVfairway
p2681
aVfaith
p2682
aVfake
p2683
aVfalcon
p2684
aVfaldo
p2685
aVfalkirk
p2686
aVfall
p2687
aVfall-off
p2688
aVfallen
p2689
aVfals
p2690
aVfalsifi
p2691
aVfalter
p2692
aVfame
p2693
aVfamili
p2694
aVfamiliar
p2695
aVfamous
p2696
aVfan
p2697
aVfanci
p2698
aVfang
p2699
aVfantasi
p2700
aVfantast
p2701
aVfar
p2702
aVfar-reach
p2703
aVfarag
p2704
aVfarah
p2705
aVfare
p2706
aVfargo
p2707
aVfarm
p2708
aVfarmer
p2709
aVfarmland
p2710
aVfarrelli
p2711
aVfascin
p2712
aVfashion
p2713
aVfast
p2714
aVfast-approach
p2715
aVfast-grow
p2716
aVfaster
p2717
aVfastest
p2718
aVfastest-grow
p2719
aVfastest-ris
p2720
aVfat
p2721
aVfatal
p2722
aVfate
p2723
aVfather
p2724
aVfather-of-two
p2725
aVfathomet
p2726
aVfatigu
p2727
aVfault
p2728
aVfaulti
p2729
aVfavour
p2730
aVfavourit
p2731
aVfbi
p2732
aVfear
p2733
aVfearn
p2734
aVfeasibl
p2735
aVfeast
p2736
aVfeat
p2737
aVfeather
p2738
aVfeatur
p2739
aVfeaturephon
p2740
aVfebruari
p2741
aVfed
p2742
aVfeder
p2743
aVfee
p2744
aVfeed
p2745
aVfeedback
p2746
aVfeel
p2747
aVfeelgood
p2748
aVfeet
p2749
aVfeign
p2750
aVfell
p2751
aVfellow
p2752
aVfellowship
p2753
aVfelt
p2754
aVfema
p2755
aVfemal
p2756
aVfenc
p2757
aVfenella
p2758
aVfenn
p2759
aVfernandinho
p2760
aVferoci
p2761
aVferrari
p2762
aVferri
p2763
aVfertil
p2764
aVfertilis
p2765
aVferus
p2766
aVfestiv
p2767
aVfetch
p2768
aVfever
p2769
aVfewer
p2770
aVfiance
p2771
aVfibr
p2772
aVfibre-opt
p2773
aVfibula
p2774
aVfiction
p2775
aVfidel
p2776
aVfield
p2777
aVfieldwork
p2778
aVfierc
p2779
aVfifa
p2780
aVfifi
p2781
aVfifpro
p2782
aVfifth
p2783
aVfifth-largest
p2784
aVfifti
p2785
aVfight
p2786
aVfightback
p2787
aVfighter
p2788
aVfigur
p2789
aVfiji
p2790
aVfile
p2791
aVfilipino
p2792
aVfill
p2793
aVfilm
p2794
aVfilomeno
p2795
aVfilter
p2796
aVfin
p2797
aVfinal
p2798
aVfinalist
p2799
aVfinanc
p2800
aVfinanci
p2801
aVfind
p2802
aVfine
p2803
aVfine-motor
p2804
aVfine-tun
p2805
aVfinely-tun
p2806
aVfiner
p2807
aVfinger
p2808
aVfingerl
p2809
aVfingerprint
p2810
aVfingerprint-read
p2811
aVfingertip
p2812
aVfinish
p2813
aVfinland
p2814
aVfinn
p2815
aVfinnish
p2816
aVfir
p2817
aVfire
p2818
aVfirebal
p2819
aVfired-up
p2820
aVfirepow
p2821
aVfirewal
p2822
aVfirework
p2823
aVfirm
p2824
aVfirmin
p2825
aVfirst
p2826
aVfirst-class
p2827
aVfirst-half
p2828
aVfirst-in-human
p2829
aVfirst-quart
p2830
aVfirst-tim
p2831
aVfiscal
p2832
aVfish
p2833
aVfisher
p2834
aVfisheri
p2835
aVfit
p2836
aVfitch
p2837
aVfitness-track
p2838
aVfive
p2839
aVfive-
p2840
aVfive-figur
p2841
aVfive-foot
p2842
aVfive-room
p2843
aVfive-week
p2844
aVfive-year
p2845
aVfive-year-old
p2846
aVfix
p2847
aVfixed-r
p2848
aVfixed-term
p2849
aVfixtur
p2850
aVflag
p2851
aVflagship
p2852
aVflail
p2853
aVflammabl
p2854
aVflander
p2855
aVflanders-roubaix
p2856
aVflap
p2857
aVflare
p2858
aVflash
p2859
aVflat
p2860
aVflatteri
p2861
aVflavour
p2862
aVflaw
p2863
aVfled
p2864
aVfleet
p2865
aVfleme
p2866
aVfleuri
p2867
aVflexibl
p2868
aVfli
p2869
aVflick
p2870
aVflickr
p2871
aVflight
p2872
aVflightless
p2873
aVflip
p2874
aVfloat
p2875
aVflock
p2876
aVflood
p2877
aVfloodgat
p2878
aVfloor
p2879
aVflora
p2880
aVflorenc
p2881
aVflorian
p2882
aVflotilla
p2883
aVflounder
p2884
aVflourish
p2885
aVflow
p2886
aVflower
p2887
aVflown
p2888
aVfloyd
p2889
aVflu-lik
p2890
aVfluent
p2891
aVfluid
p2892
aVfluke
p2893
aVflummox
p2894
aVflush
p2895
aVflutter
p2896
aVflux
p2897
aVfly-catch
p2898
aVflynn
p2899
aVfocus
p2900
aVfocuss
p2901
aVfodder
p2902
aVfog
p2903
aVfoi
p2904
aVfold
p2905
aVfold-up
p2906
aVfollow
p2907
aVfollow-up
p2908
aVfomo
p2909
aVfood
p2910
aVfool
p2911
aVfoot
p2912
aVfootag
p2913
aVfootbal
p2914
aVfootstep
p2915
aVforay
p2916
aVforbidden
p2917
aVforc
p2918
aVfore
p2919
aVforecast
p2920
aVforefront
p2921
aVforeign
p2922
aVforemost
p2923
aVforese
p2924
aVforest
p2925
aVforestri
p2926
aVforev
p2927
aVforg
p2928
aVforget
p2929
aVforgotten
p2930
aVforlorn
p2931
aVform
p2932
aVformal
p2933
aVformat
p2934
aVformer
p2935
aVformid
p2936
aVformula
p2937
aVforth
p2938
aVforthcom
p2939
aVfortnight
p2940
aVfortun
p2941
aVforum
p2942
aVforward
p2943
aVfossil
p2944
aVfoster
p2945
aVfought
p2946
aVfoul
p2947
aVfound
p2948
aVfoundat
p2949
aVfounder
p2950
aVfour
p2951
aVfour-day
p2952
aVfour-ov
p2953
aVfour-point
p2954
aVfour-way
p2955
aVfour-year
p2956
aVfour-year-old
p2957
aVfourth
p2958
aVfourth-choic
p2959
aVfox
p2960
aVfraction
p2961
aVfractur
p2962
aVfragil
p2963
aVfrailti
p2964
aVframe
p2965
aVframework
p2966
aVfran
p2967
aVfranc
p2968
aVfrancesca
p2969
aVfranceschi
p2970
aVfranchis
p2971
aVfranchise
p2972
aVfranci
p2973
aVfrancisco
p2974
aVfranco
p2975
aVfrancoi
p2976
aVfrank
p2977
aVfrankcom
p2978
aVfrankfurt
p2979
aVfraser
p2980
aVfraud
p2981
aVfraudster
p2982
aVfraught
p2983
aVfred
p2984
aVfreddi
p2985
aVfree
p2986
aVfree-float
p2987
aVfree-kick
p2988
aVfree-stand
p2989
aVfreedom
p2990
aVfreeli
p2991
aVfreestyl
p2992
aVfreez
p2993
aVfreezer
p2994
aVfreight
p2995
aVfrench
p2996
aVfrenk
p2997
aVfrequenc
p2998
aVfrequent
p2999
aVfresh
p3000
aVfreshen
p3001
aVfresher
p3002
aVfriday
p3003
aVfridg
p3004
aVfriend
p3005
aVfriendship
p3006
aVfrigat
p3007
aVfright
p3008
aVfrighten
p3009
aVfring
p3010
aVfroch
p3011
aVfrock
p3012
aVfront
p3013
aVfrontbench
p3014
aVfrontlin
p3015
aVfrontman
p3016
aVfrontrunn
p3017
aVfrontwoman
p3018
aVfrost
p3019
aVfrown
p3020
aVfrozen
p3021
aVfructos
p3022
aVfruit
p3023
aVfruition
p3024
aVfrustrat
p3025
aVft
p3026
aVfuch
p3027
aVfuel
p3028
aVfuell
p3029
aVfukuda
p3030
aVfulfil
p3031
aVfulham
p3032
aVfull
p3033
aVfull-back
p3034
aVfull-blown
p3035
aVfull-day
p3036
aVfull-length
p3037
aVfull-tim
p3038
aVfull-time-equival
p3039
aVfull-width
p3040
aVfullest
p3041
aVfulli
p3042
aVfully-fledg
p3043
aVfun
p3044
aVfunction
p3045
aVfund
p3046
aVfundament
p3047
aVfundrais
p3048
aVfuner
p3049
aVfunni
p3050
aVfunniest
p3051
aVfurnitur
p3052
aVfurther
p3053
aVfurthermor
p3054
aVfuryk
p3055
aVfuse
p3056
aVfusion
p3057
aVfuss
p3058
aVfutur
p3059
aVfuture-think
p3060
aVfuzzi
p3061
aVg
p3062
aVgabriel
p3063
aVgabriell
p3064
aVgaddafi
p3065
aVgael
p3066
aVgag
p3067
aVgail
p3068
aVgain
p3069
aVgaitskel
p3070
aVgalaxi
p3071
aVgalileo
p3072
aVgall
p3073
aVgallach
p3074
aVgalleri
p3075
aVgallon
p3076
aVgallup
p3077
aVgalway
p3078
aVgambl
p3079
aVgambon
p3080
aVgame
p3081
aVgame-chang
p3082
aVgamer
p3083
aVgamif
p3084
aVgang
p3085
aVgap
p3086
aVgarbag
p3087
aVgarcia
p3088
aVgarden
p3089
aVgardner
p3090
aVgareth
p3091
aVgarfield
p3092
aVgari
p3093
aVgarmin-sharp
p3094
aVgarner
p3095
aVgarrick
p3096
aVgarvey
p3097
aVgas
p3098
aVgase
p3099
aVgate
p3100
aVgather
p3101
aVgaug
p3102
aVgauld
p3103
aVgave
p3104
aVgavin
p3105
aVgay
p3106
aVgaz
p3107
aVgaza
p3108
aVgazprom
p3109
aVgb
p3110
aVgbs
p3111
aVgchq
p3112
aVgcse
p3113
aVgcses
p3114
aVgdp
p3115
aVgear
p3116
aVgebrselassi
p3117
aVgeek
p3118
aVgelana
p3119
aVgeldof
p3120
aVgender
p3121
aVgene
p3122
aVgene-environ
p3123
aVgeneral
p3124
aVgeneralis
p3125
aVgenerat
p3126
aVgeneric
p3127
aVgeneros
p3128
aVgenerous
p3129
aVgenet
p3130
aVgeneva
p3131
aVgeni
p3132
aVgenius
p3133
aVgenom
p3134
aVgenteel
p3135
aVgenuin
p3136
aVgeoff
p3137
aVgeoffrey
p3138
aVgeograph
p3139
aVgeographi
p3140
aVgeolog
p3141
aVgeometr
p3142
aVgeorg
p3143
aVgeorgia
p3144
aVgeraint
p3145
aVgeraldton
p3146
aVgerman
p3147
aVgerman-french
p3148
aVgermani
p3149
aVgerrard
p3150
aVgestur
p3151
aVget
p3152
aVgetaway
p3153
aVgeun-hy
p3154
aVgevorg
p3155
aVghg
p3156
aVghost
p3157
aVgiant
p3158
aVgibben
p3159
aVgift
p3160
aVgift-giv
p3161
aVgile
p3162
aVgill
p3163
aVgillan
p3164
aVgillian
p3165
aVgimmick
p3166
aVgirl
p3167
aVgiro
p3168
aVgithub
p3169
aVgive
p3170
aVgiven
p3171
aVgkm
p3172
aVgla
p3173
aVglacier
p3174
aVglad
p3175
aVglamorgan
p3176
aVglanc
p3177
aVgland
p3178
aVglandular
p3179
aVglasgow
p3180
aVglass
p3181
aVglaze
p3182
aVgleam
p3183
aVglen
p3184
aVgleni
p3185
aVglenn
p3186
aVglimps
p3187
aVglitzi
p3188
aVglobal
p3189
aVglobalis
p3190
aVglobe
p3191
aVglonass
p3192
aVgloucest
p3193
aVgloucestershir
p3194
aVglove
p3195
aVglover
p3196
aVglow
p3197
aVglut
p3198
aVglynn
p3199
aVgmt
p3200
aVgnss
p3201
aVgo
p3202
aVgo-ahead
p3203
aVgoad
p3204
aVgoal
p3205
aVgoal-lin
p3206
aVgoalkeep
p3207
aVgoalsshot
p3208
aVgoat
p3209
aVgod
p3210
aVgodsmejudg
p3211
aVgoe
p3212
aVgoggin
p3213
aVgoggl
p3214
aVgold
p3215
aVgold-med
p3216
aVgolden
p3217
aVgolf
p3218
aVgolfer
p3219
aVgomi
p3220
aVgone
p3221
aVgonet
p3222
aVgoneva
p3223
aVgonzal
p3224
aVgonzalez
p3225
aVgood
p3226
aVgoodby
p3227
aVgoodwil
p3228
aVgoodwin
p3229
aVgooey
p3230
aVgoogl
p3231
aVgordon
p3232
aVgossip
p3233
aVgot
p3234
aVgothic
p3235
aVgoug
p3236
aVgould
p3237
aVgove
p3238
aVgovern
p3239
aVgovernment
p3240
aVgovernor
p3241
aVgps
p3242
aVgrab
p3243
aVgrace
p3244
aVgracious
p3245
aVgrade
p3246
aVgradual
p3247
aVgraduat
p3248
aVgraduate-level
p3249
aVgraem
p3250
aVgraft
p3251
aVgraham
p3252
aVgraichen
p3253
aVgrain
p3254
aVgrammi
p3255
aVgrand
p3256
aVgrandchildren
p3257
aVgranddaught
p3258
aVgrandfath
p3259
aVgrandmoth
p3260
aVgrant
p3261
aVgrape
p3262
aVgrappl
p3263
aVgrass
p3264
aVgrassroot
p3265
aVgratitud
p3266
aVgraviti
p3267
aVgray
p3268
aVgrayl
p3269
aVgreat
p3270
aVgreater
p3271
aVgreatest
p3272
aVgreec
p3273
aVgreek
p3274
aVgreen
p3275
aVgreenberg
p3276
aVgreener
p3277
aVgreenest
p3278
aVgreenhous
p3279
aVgreenland
p3280
aVgreenwood
p3281
aVgreet
p3282
aVgreg
p3283
aVgrew
p3284
aVgrey
p3285
aVgrey-thompson
p3286
aVgrid
p3287
aVgrief
p3288
aVgriev
p3289
aVgrievanc
p3290
aVgriffin
p3291
aVgrill
p3292
aVgrin
p3293
aVgrind
p3294
aVgrip
p3295
aVgripe
p3296
aVgrit
p3297
aVgrocer
p3298
aVgroceri
p3299
aVgroom
p3300
aVgross
p3301
aVgross-motor
p3302
aVgrosser
p3303
aVgrossmith
p3304
aVground
p3305
aVground-bas
p3306
aVground-break
p3307
aVground-shar
p3308
aVgroundbreak
p3309
aVgroundwat
p3310
aVgroup
p3311
aVgrouper
p3312
aVgrove
p3313
aVgrover
p3314
aVgrow
p3315
aVgrower
p3316
aVgrown
p3317
aVgrowth
p3318
aVgrubber
p3319
aVgrubbi
p3320
aVgruell
p3321
aVgruesom
p3322
aVgruff
p3323
aVgrugi
p3324
aVgrunwald
p3325
aVguarante
p3326
aVguard
p3327
aVguardian
p3328
aVgueckedou
p3329
aVguenther
p3330
aVguess
p3331
aVguest
p3332
aVguiana
p3333
aVguianes
p3334
aVguid
p3335
aVguidanc
p3336
aVguidelin
p3337
aVguido
p3338
aVguildhal
p3339
aVguilt
p3340
aVguilt-ridden
p3341
aVguilti
p3342
aVguinea
p3343
aVguitarist
p3344
aVgulp
p3345
aVgun
p3346
aVgunmen
p3347
aVguokr
p3348
aVgut
p3349
aVguy
p3350
aVguzan
p3351
aVgvs
p3352
aVgyi
p3353
aVgym
p3354
aVgyromount
p3355
aVh
p3356
aVhabit
p3357
aVhabitat
p3358
aVhabitu
p3359
aVhack
p3360
aVhacker
p3361
aVhadlow
p3362
aVhadnt
p3363
aVhadoop
p3364
aVhadrian
p3365
aVhadron
p3366
aVhaemophilia
p3367
aVhaemorrhag
p3368
aVhagen
p3369
aVhagrid
p3370
aVhagu
p3371
aVhail
p3372
aVhainan
p3373
aVhair
p3374
aVhaircut
p3375
aVhairdress
p3376
aVhaixun
p3377
aVhala
p3378
aVhalf
p3379
aVhalf-chines
p3380
aVhalf-day
p3381
aVhalf-marathon
p3382
aVhalf-sent
p3383
aVhalf-tim
p3384
aVhalfway
p3385
aVhall
p3386
aVhallam
p3387
aVhallow
p3388
aVhallway
p3389
aVhalo
p3390
aVhalsal
p3391
aVhalt
p3392
aVhalv
p3393
aVham
p3394
aVhamburg
p3395
aVhamilton
p3396
aVhamlet
p3397
aVhammer
p3398
aVhammond
p3399
aVhampshir
p3400
aVhamstr
p3401
aVhand
p3402
aVhandbag
p3403
aVhandheld
p3404
aVhandl
p3405
aVhandov
p3406
aVhandset
p3407
aVhandshak
p3408
aVhang
p3409
aVhanger
p3410
aVhangers-on
p3411
aVhaphazard
p3412
aVhapless
p3413
aVhappen
p3414
aVhappi
p3415
aVhappiest
p3416
aVhappili
p3417
aVhar
p3418
aVharass
p3419
aVharcourt
p3420
aVhard
p3421
aVhard-pack
p3422
aVhardcor
p3423
aVharden
p3424
aVharder
p3425
aVhardest
p3426
aVhardlin
p3427
aVhardman
p3428
aVhardwar
p3429
aVhare
p3430
aVhargrav
p3431
aVhargreav
p3432
aVharm
p3433
aVharman
p3434
aVharmoni
p3435
aVharri
p3436
aVharriet
p3437
aVharrison
p3438
aVharsh
p3439
aVharsher
p3440
aVharvest
p3441
aVharvey
p3442
aVharwich
p3443
aVhasnt
p3444
aVhastili
p3445
aVhat
p3446
aVhatch
p3447
aVhate
p3448
aVhatfield
p3449
aVhathaway
p3450
aVhaul
p3451
aVhaunt
p3452
aVhauraki
p3453
aVhaven
p3454
aVhavent
p3455
aVhawaii
p3456
aVhawaiian
p3457
aVhawk
p3458
aVhawker
p3459
aVhawkhead
p3460
aVhawkin
p3461
aVhayden
p3462
aVhaystack
p3463
aVhazard
p3464
aVhazel
p3465
aVhbo
p3466
aVhead
p3467
aVhead-scratch
p3468
aVheader
p3469
aVheadley
p3470
aVheadlin
p3471
aVheadphon
p3472
aVheadquart
p3473
aVheadwind
p3474
aVheal
p3475
aVhealth
p3476
aVhealth-work
p3477
aVhealthi
p3478
aVhear
p3479
aVheard
p3480
aVhearn
p3481
aVheart
p3482
aVheartbeat
p3483
aVheartble
p3484
aVheartland
p3485
aVheat
p3486
aVheath
p3487
aVheatherwick
p3488
aVheathrow
p3489
aVheaton
p3490
aVheavi
p3491
aVheaviest
p3492
aVheavili
p3493
aVhebrew
p3494
aVhebrid
p3495
aVheckman
p3496
aVhectic
p3497
aVhed
p3498
aVhedd
p3499
aVhedg
p3500
aVheed
p3501
aVheight
p3502
aVheighten
p3503
aVheineken
p3504
aVheinrich
p3505
aVheir
p3506
aVheist
p3507
aVheld
p3508
aVhelen
p3509
aVhelena
p3510
aVhelicopt
p3511
aVhell
p3512
aVhelm
p3513
aVhelp
p3514
aVhelper
p3515
aVhem
p3516
aVhemeri
p3517
aVhemispher
p3518
aVhenc
p3519
aVhenley
p3520
aVhennessi
p3521
aVhenri
p3522
aVhepat
p3523
aVhepworth
p3524
aVherald
p3525
aVherb
p3526
aVherbert
p3527
aVhereditari
p3528
aVhereford-born
p3529
aVheritag
p3530
aVherman
p3531
aVhernandez
p3532
aVhero
p3533
aVheroin
p3534
aVheron
p3535
aVherp
p3536
aVhertfordshir
p3537
aVhes
p3538
aVhesa
p3539
aVheseltin
p3540
aVhesit
p3541
aVhey
p3542
aVhi-tech
p3543
aVhid
p3544
aVhidden
p3545
aVhide
p3546
aVhierarchi
p3547
aVhiggin
p3548
aVhigh
p3549
aVhigh-achiev
p3550
aVhigh-calibr
p3551
aVhigh-co
p3552
aVhigh-end
p3553
aVhigh-energi
p3554
aVhigh-fli
p3555
aVhigh-incom
p3556
aVhigh-paid
p3557
aVhigh-perform
p3558
aVhigh-profil
p3559
aVhigh-qual
p3560
aVhigh-scor
p3561
aVhigh-secur
p3562
aVhigh-tempo
p3563
aVhigher
p3564
aVhigher-than-expect
p3565
aVhighest
p3566
aVhighland
p3567
aVhighlight
p3568
aVhighway
p3569
aVhike
p3570
aVhill
p3571
aVhillock
p3572
aVhillsborough
p3573
aVhind
p3574
aVhinder
p3575
aVhint
p3576
aVhip-hop
p3577
aVhippi
p3578
aVhire
p3579
aVhiroshi
p3580
aVhistor
p3581
aVhistori
p3582
aVhistorian
p3583
aVhit
p3584
aVhither
p3585
aVhiv
p3586
aVhiv-neg
p3587
aVhiv-posit
p3588
aVhivaid
p3589
aVhive
p3590
aVhk
p3591
aVhk-list
p3592
aVhla
p3593
aVhm
p3594
aVhms
p3595
aVhmv
p3596
aVho
p3597
aVhoard
p3598
aVhoax
p3599
aVhobbi
p3600
aVhodgkin
p3601
aVhogan
p3602
aVhoggart
p3603
aVhold
p3604
aVholder
p3605
aVhole
p3606
aVholger
p3607
aVholiday
p3608
aVholist
p3609
aVhollywood
p3610
aVholm
p3611
aVholocaust
p3612
aVholt
p3613
aVhomag
p3614
aVhome
p3615
aVhome-ground
p3616
aVhome-grown
p3617
aVhome-mad
p3618
aVhomecom
p3619
aVhomegrown
p3620
aVhomeland
p3621
aVhomestak
p3622
aVhomework
p3623
aVhonda
p3624
aVhone
p3625
aVhonest
p3626
aVhoney
p3627
aVhong
p3628
aVhongkong
p3629
aVhonorari
p3630
aVhonour
p3631
aVhood
p3632
aVhook
p3633
aVhoop
p3634
aVhoot
p3635
aVhope
p3636
aVhopkin
p3637
aVhorizon
p3638
aVhormon
p3639
aVhorrend
p3640
aVhorribl
p3641
aVhorrifi
p3642
aVhorror
p3643
aVhors
p3644
aVhorseman
p3645
aVhorticultur
p3646
aVhospit
p3647
aVhost
p3648
aVhost-virus
p3649
aVhot
p3650
aVhotcours
p3651
aVhotel
p3652
aVhotlin
p3653
aVhotspot
p3654
aVhotter
p3655
aVhottest
p3656
aVhounslow
p3657
aVhour
p3658
aVhour-and-a-half
p3659
aVhour-long
p3660
aVhous
p3661
aVhousehold
p3662
aVhouston
p3663
aVhover
p3664
aVhoward
p3665
aS'howe'
p3666
aVhowev
p3667
aVhoy
p3668
aVhr
p3669
aVhrs
p3670
aVhtc
p3671
aVhuang
p3672
aVhub
p3673
aVhubi
p3674
aVhuddersfield
p3675
aVhuge
p3676
aVhugh
p3677
aVhuhn
p3678
aVhull
p3679
aVhuman
p3680
aVhumanitarian
p3681
aVhumbl
p3682
aVhumil
p3683
aVhumour
p3684
aVhumpback
p3685
aVhunch
p3686
aVhundr
p3687
aVhundredth
p3688
aVhung
p3689
aVhungari
p3690
aVhunger
p3691
aVhungri
p3692
aVhungrili
p3693
aVhunk
p3694
aVhunt
p3695
aVhunter
p3696
aVhurdl
p3697
aVhurri
p3698
aVhurrican
p3699
aVhurst
p3700
aVhurt
p3701
aVhusband
p3702
aVhustl
p3703
aVhut
p3704
aVhutch
p3705
aVhuw
p3706
aVhybrid
p3707
aVhydrogen
p3708
aVhygien
p3709
aVhype
p3710
aVhypothesi
p3711
aVhypponen
p3712
aVhytner
p3713
aViain
p3714
aVian
p3715
aViannon
p3716
aVibf
p3717
aVibi
p3718
aVibm
p3719
aVibrox
p3720
aVice
p3721
aVice-whit
p3722
aViceberg
p3723
aVicm
p3724
aVicon
p3725
aVid
p3726
aVidea
p3727
aVideal
p3728
aVident
p3729
aVidentif
p3730
aVidentifi
p3731
aVidiot
p3732
aVie
p3733
aVif
p3734
aVig
p3735
aVignit
p3736
aVignor
p3737
aVii
p3738
aViie
p3739
aVike
p3740
aVill
p3741
aVill-research
p3742
aVill-thought-out
p3743
aVilleg
p3744
aVillegitimaci
p3745
aVillicit
p3746
aVilliquid
p3747
aVilliter
p3748
aVilliteraci
p3749
aVillus
p3750
aVillustr
p3751
aVillustri
p3752
aVilyn
p3753
aVim
p3754
aVimag
p3755
aVimageri
p3756
aVimagin
p3757
aVimaginari
p3758
aVimf
p3759
aVimmedi
p3760
aVimmens
p3761
aVimmigr
p3762
aVimmor
p3763
aVimmun
p3764
aVimmunis
p3765
aVimpact
p3766
aVimpair
p3767
aVimpass
p3768
aVimpati
p3769
aVimpecc
p3770
aVimped
p3771
aVimpend
p3772
aVimperi
p3773
aVimperson
p3774
aVimpetus
p3775
aVimplant
p3776
aVimplement
p3777
aVimplic
p3778
aVimplicit
p3779
aVimport
p3780
aVimpos
p3781
aVimposs
p3782
aVimpract
p3783
aVimpress
p3784
aVimprov
p3785
aVimpuls
p3786
aVimri
p3787
aVin-depth
p3788
aVin-out
p3789
aVin-stor
p3790
aVinact
p3791
aVinadequ
p3792
aVinappropri
p3793
aVinbox
p3794
aVinbreed
p3795
aVincap
p3796
aVincent
p3797
aVincept
p3798
aVinch
p3799
aVincid
p3800
aVincident
p3801
aVinclud
p3802
aVinclus
p3803
aVincom
p3804
aVinconclus
p3805
aVinconsist
p3806
aVinconveni
p3807
aVincorpor
p3808
aVincorrect
p3809
aVincreas
p3810
aVincred
p3811
aVincrement
p3812
aVincub
p3813
aVinculc
p3814
aVincumb
p3815
aVincur
p3816
aVincurs
p3817
aVinde
p3818
aVindec
p3819
aVindefens
p3820
aVindepend
p3821
aVindex
p3822
aVindhu
p3823
aVindi
p3824
aVindia
p3825
aVindian
p3826
aVindic
p3827
aVindict
p3828
aVindigo
p3829
aVindiscrimin
p3830
aVindividu
p3831
aVindonesia
p3832
aVindoor
p3833
aVinduc
p3834
aVinduct
p3835
aVindustri
p3836
aVindustrialis
p3837
aVindustry-target
p3838
aVindustry-wid
p3839
aVineffici
p3840
aVinelig
p3841
aVinequ
p3842
aVinertia
p3843
aVinescap
p3844
aVinevit
p3845
aVinfam
p3846
aVinfant
p3847
aVinfect
p3848
aVinfer
p3849
aVinferior
p3850
aVinfidel
p3851
aVinflam
p3852
aVinflammatori
p3853
aVinflat
p3854
aVinflict
p3855
aVinfluenc
p3856
aVinfluenti
p3857
aVinfluenza
p3858
aVinform
p3859
aVinfrastructur
p3860
aVinfring
p3861
aVing
p3862
aVingredi
p3863
aVingss
p3864
aVinhabit
p3865
aVinhal
p3866
aVinher
p3867
aVinherit
p3868
aViniti
p3869
aVinject
p3870
aVinjunct
p3871
aVinjur
p3872
aVinjuri
p3873
aVinjustic
p3874
aVink
p3875
aVinner
p3876
aVinnov
p3877
aVinnumer
p3878
aVinout
p3879
aVinpati
p3880
aVinput
p3881
aVinquest
p3882
aVinquiri
p3883
aVinquisitor
p3884
aVinsati
p3885
aVinsect
p3886
aVinsecur
p3887
aVinsid
p3888
aVinsidi
p3889
aVinsight
p3890
aVinsincer
p3891
aVinsist
p3892
aVinspect
p3893
aVinspector
p3894
aVinspir
p3895
aVinstabl
p3896
aVinstal
p3897
aVinstanc
p3898
aVinstant
p3899
aVinstead
p3900
aVinstil
p3901
aVinstinct
p3902
aVinstitut
p3903
aVinstruct
p3904
aVinstructor
p3905
aVinstrument
p3906
aVinsul
p3907
aVintak
p3908
aVintegr
p3909
aVintellectu
p3910
aVintellig
p3911
aVintend
p3912
aVintens
p3913
aVintent
p3914
aVinter
p3915
aVinteract
p3916
aVintercept
p3917
aVinterconnect
p3918
aVinterconnector
p3919
aVintercours
p3920
aVinterest
p3921
aVinterf
p3922
aVinterfac
p3923
aVinterfer
p3924
aVintergovernment
p3925
aVinterim
p3926
aVinterlock
p3927
aVintermitt
p3928
aVintern
p3929
aVinternet
p3930
aVinternship
p3931
aVinterperson
p3932
aVinterpret
p3933
aVinterrupt
p3934
aVintertwin
p3935
aVinterv
p3936
aVinterven
p3937
aVintervent
p3938
aVinterview
p3939
aVinterwov
p3940
aVintestin
p3941
aVintim
p3942
aVintimaci
p3943
aVintrigu
p3944
aVintroduc
p3945
aVintroduct
p3946
aVintrud
p3947
aVintrus
p3948
aVinvent
p3949
aVinventor
p3950
aVinventori
p3951
aVinver
p3952
aVinvest
p3953
aVinvestig
p3954
aVinvestor
p3955
aVinvis
p3956
aVinvit
p3957
aVinvoic
p3958
aVinvolv
p3959
aVio
p3960
aViona
p3961
aViowa
p3962
aVipad
p3963
aVipc
p3964
aVipcc
p3965
aViphon
p3966
aViphone-
p3967
aVipsa
p3968
aVipso
p3969
aVipsos-mori
p3970
aViq
p3971
aVira
p3972
aViraq
p3973
aVire
p3974
aVireland
p3975
aViri
p3976
aVirina
p3977
aVirish
p3978
aVirish-bas
p3979
aViron
p3980
aVironman
p3981
aVirregular
p3982
aVirresist
p3983
aVirrit
p3984
aVislam
p3985
aVislamist
p3986
aVisland
p3987
aVislay
p3988
aVisnt
p3989
aVisol
p3990
aVisp
p3991
aVisra
p3992
aVisrael
p3993
aVissu
p3994
aVissuanc
p3995
aVitali
p3996
aVitalian
p3997
aVitalyfr
p3998
aVitem
p3999
aViten
p4000
aVitinerari
p4001
aVitll
p4002
aVitri
p4003
aVitun
p4004
aVive
p4005
aVivi
p4006
aVivori
p4007
aVj
p4008
aVjab
p4009
aVjack
p4010
aVjacket
p4011
aVjacki
p4012
aVjackman
p4013
aVjackson
p4014
aVjacob
p4015
aVjail
p4016
aVjakarta
p4017
aVjake
p4018
aVjam
p4019
aVjame
p4020
aVjameela
p4021
aVjami
p4022
aVjamieson
p4023
aVjamil
p4024
aVjaneiro
p4025
aVjanic
p4026
aVjanschwalde-nord
p4027
aVjanuari
p4028
aVjapan
p4029
aVjapanes
p4030
aVjar
p4031
aVjargon
p4032
aVjarvi
p4033
aVjason
p4034
aVjasvind
p4035
aVjavascript
p4036
aVjavid
p4037
aVjaw
p4038
aVjawbon
p4039
aVjayn
p4040
aVjealousi
p4041
aVjean
p4042
aVjean-jacqu
p4043
aVjean-marc
p4044
aVjedda
p4045
aVjedinak
p4046
aVjeep
p4047
aVjen
p4048
aVjenni
p4049
aVjennif
p4050
aVjeopardis
p4051
aVjeptoo
p4052
aVjeremi
p4053
aVjerk
p4054
aVjermain
p4055
aVjerom
p4056
aVjersey
p4057
aVjerusalem
p4058
aVjess
p4059
aVjessi
p4060
aVjesus
p4061
aVjet
p4062
aVjetz
p4063
aVjew
p4064
aVjewel
p4065
aVjewelleri
p4066
aVjewish
p4067
aVjim
p4068
aVjimmi
p4069
aVjink
p4070
aVjk
p4071
aVjo
p4072
aVjoanna
p4073
aVjob
p4074
aVjob-seek
p4075
aVjobseek
p4076
aVjockey
p4077
aVjoe
p4078
aVjoel
p4079
aVjohann
p4080
aVjohn
p4081
aVjohn-jul
p4082
aVjohnni
p4083
aVjohnson
p4084
aVjoin
p4085
aVjoint
p4086
aVjoke
p4087
aVjoleon
p4088
aVjoli
p4089
aVjolt
p4090
aVjon
p4091
aVjon-allan
p4092
aVjona
p4093
aVjonathan
p4094
aVjone
p4095
aVjoness
p4096
aVjonni
p4097
aVjordan
p4098
aVjorg
p4099
aVjose
p4100
aVjosep
p4101
aVjosh
p4102
aVjournal
p4103
aVjournalist
p4104
aVjourney
p4105
aVjourneymen
p4106
aVjoy
p4107
aVjoyc
p4108
aVjpmorgan
p4109
aVjuan
p4110
aVjubil
p4111
aVjudg
p4112
aVjudgement
p4113
aVjudgment
p4114
aVjudi
p4115
aVjudici
p4116
aVjudith
p4117
aVjuic
p4118
aVjuli
p4119
aVjulia
p4120
aVjulian
p4121
aVjuliana
p4122
aVjump
p4123
aVjune
p4124
aVjunior
p4125
aVjunk
p4126
aVjupit
p4127
aVjuri
p4128
aVjustic
p4129
aVjustifi
p4130
aVjustin
p4131
aVjzsef
p4132
aVk
p4133
aVkabbag
p4134
aVkagisho
p4135
aVkagu
p4136
aVkaiser
p4137
aVkakapo
p4138
aVkalbasi
p4139
aVkallio
p4140
aVkampala
p4141
aVkamukama
p4142
aVkangaroo
p4143
aVkaranka
p4144
aVkarel
p4145
aVkarim
p4146
aVkarma
p4147
aVkasahara
p4148
aVkasetsiri
p4149
aVkasperski
p4150
aVkate
p4151
aVkatherin
p4152
aVkathryn
p4153
aVkati
p4154
aVkaya
p4155
aVkaymer
p4156
aVkean
p4157
aVkeat
p4158
aVkebed
p4159
aVkedroski
p4160
aVkeen
p4161
aVkeep
p4162
aVkeepass
p4163
aVkeeper
p4164
aVkeija
p4165
aVkeith
p4166
aVkell
p4167
aVkellaway
p4168
aVkelleh
p4169
aVkelley
p4170
aVkelli
p4171
aVkemfert
p4172
aVkemp
p4173
aVken
p4174
aVkenenisa
p4175
aVkennaugh
p4176
aVkennedi
p4177
aVkenni
p4178
aVkent
p4179
aVkentutsi
p4180
aVkenya
p4181
aVkept
p4182
aVkerr
p4183
aVkerslak
p4184
aVkerstin
p4185
aVkevin
p4186
aVkey
p4187
aVkeynot
p4188
aVkg
p4189
aVkhan
p4190
aVkhatchikian
p4191
aVkhor
p4192
aVkibbutz
p4193
aVkick
p4194
aVkick-off
p4195
aVkick-start
p4196
aVkickstart
p4197
aVkid
p4198
aVkidney
p4199
aVkieran
p4200
aVkiev
p4201
aVkight
p4202
aVkilburn
p4203
aVkill
p4204
aVkiller
p4205
aVkilli
p4206
aVkilo
p4207
aVkilobit
p4208
aVkilogram
p4209
aVkilometr
p4210
aVkim
p4211
aVkimetto
p4212
aVkind
p4213
aVkinder
p4214
aVkindergarten
p4215
aVking
p4216
aVkingdom
p4217
aVkingston
p4218
aVkinnock
p4219
aVkiprotich
p4220
aVkipsang
p4221
aVkirsti
p4222
aVkisidougou
p4223
aVkiss
p4224
aVkit
p4225
aVkitchen
p4226
aVkite
p4227
aVkiva
p4228
aVkiwi
p4229
aVkm
p4230
aVkm-high
p4231
aVkmh
p4232
aVknee
p4233
aVknee-jerk
p4234
aVkneejerk
p4235
aVknew
p4236
aVknight
p4237
aVknighthood
p4238
aVknock
p4239
aVknock-on
p4240
aVknocking-on
p4241
aVknockout
p4242
aVknow
p4243
aVknowledg
p4244
aVknown
p4245
aVkoech
p4246
aVkohler-cadmor
p4247
aVkoke
p4248
aVkolarov
p4249
aVkompani
p4250
aVkong
p4251
aVkonstantopoulo
p4252
aVkoon
p4253
aVkorea
p4254
aVkorean
p4255
aVkospi
p4256
aVkreb
p4257
aVkremlin
p4258
aVksenia
p4259
aVkun
p4260
aVkutal
p4261
aVkwh
p4262
aVkyaw
p4263
aVkyetum
p4264
aVkyi
p4265
aVkyli
p4266
aVl
p4267
aVla
p4268
aVlab
p4269
aVlab-grown
p4270
aVlabel
p4271
aVlabor
p4272
aVlaboratori
p4273
aVlabour
p4274
aVlabour-l
p4275
aVlaci
p4276
aVlack
p4277
aVlacklustr
p4278
aVlad
p4279
aVlada
p4280
aVladder
p4281
aVladdi
p4282
aVladi
p4283
aVlaffranchi
p4284
aVlafontain
p4285
aVlag
p4286
aVlaid
p4287
aVlake
p4288
aVlam
p4289
aVlamacq
p4290
aVlamb
p4291
aVlambert
p4292
aVlament
p4293
aVlamont
p4294
aVlamp
p4295
aVlancast
p4296
aVlancet
p4297
aVland
p4298
aVlandfil
p4299
aVlandmark
p4300
aVlandmass
p4301
aVlandown
p4302
aVlandscap
p4303
aVlandslid
p4304
aVlane
p4305
aVlanger
p4306
aVlangland
p4307
aVlanguag
p4308
aVlansley
p4309
aVlao
p4310
aVlap
p4311
aVlaps
p4312
aVlaptop
p4313
aVlar
p4314
aVlarg
p4315
aVlarge-scal
p4316
aVlarger
p4317
aVlargest
p4318
aVlas
p4319
aVlaser
p4320
aVlaser-bas
p4321
aVlaser-lik
p4322
aVlast
p4323
aVlast-ditch
p4324
aVlastpass
p4325
aVlatch
p4326
aVlate
p4327
aVlate-night
p4328
aVlater
p4329
aVlatest
p4330
aVlatin
p4331
aVlatitud
p4332
aVlau
p4333
aVlaugh
p4334
aVlaugh-fest
p4335
aVlaughabl
p4336
aVlaunch
p4337
aVlaura
p4338
aVlaurenson
p4339
aVlaurent
p4340
aVlausitz
p4341
aVlava
p4342
aVlaw
p4343
aVlawless
p4344
aVlawrenc
p4345
aVlawrenson
p4346
aVlawro
p4347
aVlawyer
p4348
aVlay
p4349
aVlayer
p4350
aVlazi
p4351
aVlazio
p4352
aVlb
p4353
aVle
p4354
aVlea
p4355
aVlead
p4356
aVleadbitt
p4357
aVleader
p4358
aVleadership
p4359
aVleagu
p4360
aVleak
p4361
aVleakag
p4362
aVlean
p4363
aVleann
p4364
aVleap
p4365
aVlearn
p4366
aVlearner
p4367
aVlearnt
p4368
aVleas
p4369
aVleast
p4370
aVleather
p4371
aVleatherdal
p4372
aVleav
p4373
aVlectur
p4374
aVled
p4375
aVledesma
p4376
aVledley
p4377
aVlee
p4378
aVleech
p4379
aVleed
p4380
aVleft
p4381
aVleft-back
p4382
aVleft-foot
p4383
aVleft-hand
p4384
aVleft-ov
p4385
aVleft-sid
p4386
aVlefti
p4387
aVleftov
p4388
aVleftw
p4389
aVleg
p4390
aVlegaci
p4391
aVlegal
p4392
aVlegend
p4393
aVlegisl
p4394
aVlegitim
p4395
aVleicest
p4396
aVleisur
p4397
aVleiva
p4398
aVlel
p4399
aVlelisa
p4400
aVlen
p4401
aVlend
p4402
aVlender
p4403
aVlength
p4404
aVlenient
p4405
aVlent
p4406
aVlentil
p4407
aVleon
p4408
aVlep
p4409
aVlescott
p4410
aVlesli
p4411
aVlesnikova
p4412
aVless
p4413
aVlessen
p4414
aVlesser
p4415
aVlesson
p4416
aVlester
p4417
aVlet
p4418
aVletter
p4419
aVletterman
p4420
aVleung
p4421
aVleve
p4422
aVlevel
p4423
aVlever
p4424
aVlew
p4425
aVlewi
p4426
aVleyl
p4427
aVlg
p4428
aVlgas
p4429
aVli-wei
p4430
aVliabl
p4431
aVliam
p4432
aVlian
p4433
aVliao
p4434
aVlib
p4435
aVliban
p4436
aVliber
p4437
aVliberia
p4438
aVliberti
p4439
aVlibrari
p4440
aVlibrarian
p4441
aVlibya
p4442
aVlicenc
p4443
aVlicens
p4444
aVlid
p4445
aVlie
p4446
aVlife
p4447
aVlife-long
p4448
aVlifeblood
p4449
aVlifetim
p4450
aVlift
p4451
aVliga
p4452
aVlight
p4453
aVlight-weight
p4454
aVlight-year
p4455
aVlighter
p4456
aVlighthous
p4457
aVlightman
p4458
aVlightn
p4459
aVlignit
p4460
aVlike
p4461
aVliken
p4462
aVlikewis
p4463
aVlili
p4464
aVlilley
p4465
aVlim
p4466
aVlimb
p4467
aVlimit
p4468
aVlimited-numb
p4469
aVlin
p4470
aVlindblad-toh
p4471
aVline
p4472
aVline-up
p4473
aVliner
p4474
aVlineup
p4475
aVlinguist
p4476
aVlink
p4477
aVlink-up
p4478
aVlinslad
p4479
aVlip
p4480
aVliquefi
p4481
aVliquid
p4482
aVlist
p4483
aVlisten
p4484
aVlit
p4485
aVliter
p4486
aVliteraci
p4487
aVliterari
p4488
aVliteratur
p4489
aVlithuania
p4490
aVlitr
p4491
aVlitter
p4492
aVlittl
p4493
aVlittler
p4494
aVliu
p4495
aVlive
p4496
aVliver
p4497
aVliverpool
p4498
aVlivesey
p4499
aVlivi
p4500
aVlivingston
p4501
aVliz
p4502
aVlizard
p4503
aVlizo
p4504
aVlizzi
p4505
aVllangollen
p4506
aVlleida
p4507
aVlloyd
p4508
aVlng
p4509
aVlo
p4510
aVload
p4511
aVloan
p4512
aVloath
p4513
aVlob
p4514
aVlobbi
p4515
aVlocal
p4516
aVlocal-born
p4517
aVlocalis
p4518
aVlocat
p4519
aVlock
p4520
aVlock-in
p4521
aVlocker
p4522
aVlocomot
p4523
aVloft
p4524
aVlog
p4525
aVlogic
p4526
aVloi
p4527
aVlolita
p4528
aVlomax
p4529
aVlondon
p4530
aVlondon-bas
p4531
aVlone
p4532
aVloneli
p4533
aVlonergan
p4534
aVlong
p4535
aVlong-await
p4536
aVlong-establish
p4537
aVlong-last
p4538
aVlong-liv
p4539
aVlong-rang
p4540
aVlong-stand
p4541
aVlong-term
p4542
aVlong-tim
p4543
aVlonger
p4544
aVlonger-term
p4545
aVlongest
p4546
aVlongev
p4547
aVlongstand
p4548
aVlook
p4549
aVlooked-aft
p4550
aVloom
p4551
aVloop
p4552
aVloos
p4553
aVloosen
p4554
aVlope
p4555
aVlord
p4556
aVlore
p4557
aVlos
p4558
aVlose
p4559
aVloss
p4560
aVlost
p4561
aVlot
p4562
aVlothian
p4563
aVloud
p4564
aVloughborough
p4565
aVloui
p4566
aVlouis
p4567
aVloung
p4568
aVlove
p4569
aVlover
p4570
aVlow
p4571
aVlow-budget
p4572
aVlow-carbon
p4573
aVlow-end
p4574
aVlow-energi
p4575
aVlow-pow
p4576
aVlow-tech
p4577
aVlower
p4578
aVlowest
p4579
aVlowest-earn
p4580
aVlowton
p4581
aVloyal
p4582
aVloyalti
p4583
aVltd
p4584
aVlu
p4585
aVlubric
p4586
aVluca
p4587
aVluci
p4588
aVluck
p4589
aVlucki
p4590
aVluckili
p4591
aVludicr
p4592
aVluhansk
p4593
aVlui
p4594
aVluke
p4595
aVlumin
p4596
aVlunch
p4597
aVlunchbox
p4598
aVlung
p4599
aVlurch
p4600
aVlure
p4601
aVlurk
p4602
aVlush
p4603
aVluton
p4604
aVluvvi
p4605
aVlux
p4606
aVluxuri
p4607
aVlyle
p4608
aVlymphoma
p4609
aVlynam
p4610
aVlynch
p4611
aVlynda
p4612
aVlynett
p4613
aVlynx
p4614
aVlyric
p4615
aVm
p4616
aVm-a-year
p4617
aVm-long
p4618
aVm-shark
p4619
aVma
p4620
aVmaastricht
p4621
aVmacaw
p4622
aVmacdonald
p4623
aVmacenta
p4624
aVmachin
p4625
aVmachineri
p4626
aVmackay-steven
p4627
aVmackey
p4628
aVmadagascar
p4629
aVmade
p4630
aVmadoff
p4631
aVmadrid
p4632
aVmaendeleo
p4633
aVmaf
p4634
aVmagazin
p4635
aVmaggi
p4636
aVmagic
p4637
aVmagnet
p4638
aVmagnific
p4639
aVmagnolia
p4640
aVmahmood
p4641
aVmaiden
p4642
aVmail
p4643
aVmailbag
p4644
aVmain
p4645
aVmainland
p4646
aVmainstream
p4647
aVmaintain
p4648
aVmainten
p4649
aVmajesti
p4650
aVmajor
p4651
aVmakau
p4652
aVmake
p4653
aVmakelel
p4654
aVmaker
p4655
aVmakeshift
p4656
aVmakinson
p4657
aVmako
p4658
aVmalaria
p4659
aVmalawi
p4660
aVmalaysia
p4661
aVmale
p4662
aVmali
p4663
aVmalici
p4664
aVmall
p4665
aVmalt
p4666
aVmaltos
p4667
aVmalvern
p4668
aVmalvertis
p4669
aVmammal
p4670
aVman
p4671
aVman-mad
p4672
aVmanag
p4673
aVmanageri
p4674
aVmanchest
p4675
aVmancunian
p4676
aVmandalay
p4677
aVmandela
p4678
aVmandelson
p4679
aVmandi
p4680
aVmaneat
p4681
aVmangan
p4682
aVmangrov
p4683
aVmanhattan
p4684
aVmani
p4685
aVmanic
p4686
aVmanifest
p4687
aVmanifesto
p4688
aVmanila
p4689
aVmanipul
p4690
aVmanner
p4691
aVmanni
p4692
aVmanoeuvr
p4693
aVmanor
p4694
aVmanpow
p4695
aVmansfield
p4696
aVmantra
p4697
aVmanu
p4698
aVmanuel
p4699
aVmanufactur
p4700
aVmap
p4701
aVmapl
p4702
aVmaqbool
p4703
aVmar
p4704
aVmaradona
p4705
aVmarathon
p4706
aVmarc
p4707
aVmarch
p4708
aVmarch-styl
p4709
aVmargaret
p4710
aVmargin
p4711
aVmarginalis
p4712
aVmari
p4713
aVmaria
p4714
aVmariana
p4715
aVmariano
p4716
aVmariappa
p4717
aVmarigold
p4718
aVmarin
p4719
aVmario
p4720
aVmarion
p4721
aVmarisa
p4722
aVmaritim
p4723
aVmark
p4724
aVmarket
p4725
aVmarketplac
p4726
aVmarney
p4727
aVmarouan
p4728
aVmarquez
p4729
aVmarri
p4730
aVmarriag
p4731
aVmartial
p4732
aVmartin
p4733
aVmarvel
p4734
aVmaryland
p4735
aVmask
p4736
aVmaso
p4737
aVmason
p4738
aVmass
p4739
aVmassachusett
p4740
aVmassey
p4741
aVmassiv
p4742
aVmaster
p4743
aVmastercard
p4744
aVmastermind
p4745
aVmasters-logo
p4746
aVmatador
p4747
aVmatch
p4748
aVmatchroom
p4749
aVmate
p4750
aVmateri
p4751
aVmath
p4752
aVmathemat
p4753
aVmatheson
p4754
aVmatt
p4755
aVmatter
p4756
aVmatthew
p4757
aVmatur
p4758
aVmaverick
p4759
aVmax
p4760
aVmaximis
p4761
aVmaximum
p4762
aVmay
p4763
aVmayb
p4764
aVmayonnais
p4765
aVmayor
p4766
aVmazda
p4767
aVmba
p4768
aVmbe
p4769
aVmcanea
p4770
aVmccall
p4771
aVmccann
p4772
aVmccarthy-scarsbrook
p4773
aVmcculloch
p4774
aVmcdougal
p4775
aVmcdowel
p4776
aVmcevoy
p4777
aVmcgeehan
p4778
aVmcgowan
p4779
aVmcguin
p4780
aVmcilroy
p4781
aVmcloughlin
p4782
aVmcnamara
p4783
aVmcshane
p4784
aVmeadowbank
p4785
aVmeal
p4786
aVmean
p4787
aVmeant
p4788
aVmeantim
p4789
aVmeanwhil
p4790
aVmearn
p4791
aVmeasl
p4792
aVmeasur
p4793
aVmeat
p4794
aVmechan
p4795
aVmedal
p4796
aVmedalist
p4797
aVmedallist
p4798
aVmedia
p4799
aVmediat
p4800
aVmedic
p4801
aVmedicin
p4802
aVmedium
p4803
aVmedium-s
p4804
aVmedley
p4805
aVmee
p4806
aVmeet
p4807
aVmeet-up
p4808
aVmegac
p4809
aVmegawatt
p4810
aVmegen
p4811
aVmekonnen
p4812
aVmelatonin
p4813
aVmelbourn
p4814
aVmelhuish
p4815
aVmelodi
p4816
aVmelros
p4817
aVmember
p4818
aVmembership
p4819
aVmemor
p4820
aVmemori
p4821
aVmen
p4822
aVmend
p4823
aVmenes
p4824
aVmening
p4825
aVmenswear
p4826
aVmental
p4827
aVmention
p4828
aVmentor
p4829
aVmenu
p4830
aVmenzi
p4831
aVmerchant
p4832
aVmerg
p4833
aVmerger
p4834
aVmerit
p4835
aVmerkel
p4836
aVmerri
p4837
aVmerrick
p4838
aVmerron
p4839
aVmess
p4840
aVmessag
p4841
aVmessi
p4842
aVmet
p4843
aVmetal
p4844
aVmeteorolog
p4845
aVmeter
p4846
aVmethan
p4847
aVmethod
p4848
aVmethodist
p4849
aVmethodolog
p4850
aVmeticul
p4851
aVmetop
p4852
aVmetop-sg
p4853
aVmetr
p4854
aVmetric
p4855
aVmetropoli
p4856
aVmetropolitan
p4857
aVmeurig
p4858
aVmexico
p4859
aVmezzo
p4860
aVmgm
p4861
aVmh
p4862
aVmhs
p4863
aVmi
p4864
aVmice
p4865
aVmichael
p4866
aVmichel
p4867
aVmichell
p4868
aVmick
p4869
aVmickelson
p4870
aVmicro-topographi
p4871
aVmicrobiolog
p4872
aVmicroscop
p4873
aVmicroscopi
p4874
aVmicrosoft
p4875
aVmid
p4876
aVmid-
p4877
aVmid-april
p4878
aVmid-th
p4879
aVmidcounti
p4880
aVmiddl
p4881
aVmiddle-class
p4882
aVmiddle-incom
p4883
aVmiddle-rank
p4884
aVmiddle-school
p4885
aVmiddlesbrough
p4886
aVmidfield
p4887
aVmidland
p4888
aVmidnight
p4889
aVmidway
p4890
aVmight
p4891
aVmigrant
p4892
aVmigrat
p4893
aVmika
p4894
aVmike
p4895
aVmikko
p4896
aVmilan
p4897
aVmild
p4898
aVmile
p4899
aVmileston
p4900
aVmiliband
p4901
aVmilit
p4902
aVmilitari
p4903
aVmilitarili
p4904
aVmilk
p4905
aVmilki
p4906
aVmill
p4907
aVmillar
p4908
aVmillennium
p4909
aVmiller
p4910
aVmillington
p4911
aVmillion
p4912
aVmillionair
p4913
aVmillisecond
p4914
aVmillpond
p4915
aVmilner
p4916
aVmimic
p4917
aVmimick
p4918
aVmin
p4919
aVmind
p4920
aVmine
p4921
aVminecraft
p4922
aVminefield
p4923
aVminer
p4924
aVminesweep
p4925
aVmini
p4926
aVmini-marathon
p4927
aVmini-sub
p4928
aVminia
p4929
aVminiatur
p4930
aVminimis
p4931
aVminimum
p4932
aVminist
p4933
aVministeri
p4934
aVministri
p4935
aVminogu
p4936
aVminor
p4937
aVminster
p4938
aVmint
p4939
aVminut
p4940
aVmiroslav
p4941
aVmirren
p4942
aVmirror
p4943
aVmischief
p4944
aVmiscommun
p4945
aVmisconcept
p4946
aVmisconduct
p4947
aVmisdiagnos
p4948
aVmiser
p4949
aVmiseri
p4950
aVmisfortun
p4951
aVmisguid
p4952
aVmisread
p4953
aVmiss
p4954
aVmission
p4955
aVmistak
p4956
aVmistaken
p4957
aVmisunderstand
p4958
aVmisus
p4959
aVmit
p4960
aVmitchel
p4961
aVmitig
p4962
aVmix
p4963
aVmixed-rac
p4964
aVmixtur
p4965
aVmla
p4966
aVmmarathon
p4967
aVmo
p4968
aVmoalimu
p4969
aVmobil
p4970
aVmock
p4971
aVmod
p4972
aVmode
p4973
aVmodel
p4974
aVmoder
p4975
aVmodern
p4976
aVmodern-look
p4977
aVmodernis
p4978
aVmodest
p4979
aVmodfath
p4980
aVmodul
p4981
aVmoffat
p4982
aVmogadishu
p4983
aVmoham
p4984
aVmohammad
p4985
aVmohsni
p4986
aVmoira
p4987
aVmole
p4988
aVmolecul
p4989
aVmoment
p4990
aVmomentum
p4991
aVmonarch
p4992
aVmonday
p4993
aVmonetari
p4994
aVmoney
p4995
aVmoneybox
p4996
aVmongodb
p4997
aVmonika
p4998
aVmonitor
p4999
aVmonkey
p5000
aVmono
p5001
aVmonopoli
p5002
aVmonster
p5003
aVmontagn
p5004
aVmontana
p5005
aVmontgomeri
p5006
aVmonth
p5007
aVmonument
p5008
aVmooc
p5009
aVmooc-typ
p5010
aVmoocer
p5011
aVmood
p5012
aVmoodi
p5013
aVmoon
p5014
aVmoonless
p5015
aVmoonv
p5016
aVmoor
p5017
aVmoral
p5018
aVmoran
p5019
aVmorell
p5020
aVmorgan
p5021
aVmorgaro
p5022
aVmori
p5023
aVmoriceau
p5024
aVmorn
p5025
aVmorri
p5026
aVmortar
p5027
aVmortgag
p5028
aVmosaic
p5029
aVmoscow
p5030
aVmoskalik
p5031
aVmost
p5032
aVmotel
p5033
aVmother
p5034
aVmotherwel
p5035
aVmotiv
p5036
aVmoto
p5037
aVmotogp
p5038
aVmotor
p5039
aVmotorist
p5040
aVmotorway
p5041
aVmould
p5042
aVmoulder
p5043
aVmount
p5044
aVmountain
p5045
aVmouth
p5046
aVmouthwat
p5047
aVmove
p5048
aVmoveabl
p5049
aVmovement
p5050
aVmover
p5051
aVmovi
p5052
aVmovistar
p5053
aVmowbray
p5054
aVmp
p5055
aVmps
p5056
aVmr
p5057
aVmrs
p5058
aVms
p5059
aVmuch
p5060
aVmuddi
p5061
aVmudflat
p5062
aVmuffett
p5063
aVmug
p5064
aVmuijr
p5065
aVmukono
p5066
aVmull
p5067
aVmulligan
p5068
aVmulti-billion-euro
p5069
aVmulti-classif
p5070
aVmulti-direct
p5071
aVmulti-stori
p5072
aVmulti-year
p5073
aVmultilater
p5074
aVmultipl
p5075
aVmultipli
p5076
aVmultitud
p5077
aVmum
p5078
aVmumbai
p5079
aVmummi
p5080
aVmunchetti
p5081
aVmunicip
p5082
aVmuppet
p5083
aVmurdoch
p5084
aVmurmur
p5085
aVmurray
p5086
aVmuscl
p5087
aVmuscular
p5088
aVmuseum
p5089
aVmuseum-visit
p5090
aVmuseveni
p5091
aVmusic
p5092
aVmusician
p5093
aVmuslim
p5094
aVmust
p5095
aVmust-win
p5096
aVmutai
p5097
aVmutat
p5098
aVmutual
p5099
aVmyanmar
p5100
aVmyersdorf
p5101
aVmyner
p5102
aVmyriad
p5103
aVmysteri
p5104
aVmystiqu
p5105
aVmythic
p5106
aVmzimba
p5107
aVn
p5108
aVna
p5109
aVnadir
p5110
aVnafophanu
p5111
aVnaga
p5112
aVnaht
p5113
aVnail
p5114
aVnairn
p5115
aVnaiv
p5116
aVnakagami
p5117
aVname
p5118
aVnamepl
p5119
aVnan
p5120
aVnanci
p5121
aVnankya
p5122
aVnano-cryst
p5123
aVnano-dot
p5124
aVnano-technolog
p5125
aVnanomet
p5126
aVnansen
p5127
aVnantou
p5128
aVnantwich
p5129
aVnapier
p5130
aVnapoleon
p5131
aVnarcolepsi
p5132
aVnarrat
p5133
aVnarrow
p5134
aVnarrowli
p5135
aVnasa
p5136
aVnasdaq
p5137
aVnasri
p5138
aVnasti
p5139
aVnasuwt
p5140
aVnatali
p5141
aVnathan
p5142
aVnathaniel
p5143
aVnation
p5144
aVnationwid
p5145
aVnato
p5146
aVnatur
p5147
aVnaval
p5148
aVnavi
p5149
aVnavig
p5150
aVnazi
p5151
aVnazir
p5152
aVnbcs
p5153
aVnd
p5154
aVnear
p5155
aVnearbi
p5156
aVneat
p5157
aVnecess
p5158
aVnecessari
p5159
aVnecessarili
p5160
aVnecessit
p5161
aVneck
p5162
aVned
p5163
aVneed
p5164
aVneedl
p5165
aVneedless
p5166
aVnegat
p5167
aVneglect
p5168
aVnegoti
p5169
aVnegredo
p5170
aVneighbour
p5171
aVneighbourhood
p5172
aVneil
p5173
aVneither
p5174
aVnelson
p5175
aVneon
p5176
aVnerv
p5177
aVnerve-wrack
p5178
aVnervosa
p5179
aVnervous
p5180
aVnest
p5181
aVnesta
p5182
aVnester
p5183
aVnestl
p5184
aVnet
p5185
aVnetapp
p5186
aVnetwork
p5187
aVneurolog
p5188
aVneuron
p5189
aVneurosurgeri
p5190
aVneuter
p5191
aVneutral
p5192
aVnever
p5193
aVnever-end
p5194
aVnevertheless
p5195
aVnevin
p5196
aVnew
p5197
aVnew-look
p5198
aVnew-styl
p5199
aVnewborn
p5200
aVnewcastl
p5201
aVnewcom
p5202
aVnewer
p5203
aVnewest
p5204
aVnewfoundland
p5205
aVnewli
p5206
aVnewly-adopt
p5207
aS'news'
p5208
aVnewsbeat
p5209
aVnewsnight
p5210
aVnewspap
p5211
aVnext
p5212
aVneyir
p5213
aVnfu
p5214
aVnguyen
p5215
aVnhs
p5216
aVnibbl
p5217
aVnice
p5218
aVnichol
p5219
aVnichola
p5220
aVnick
p5221
aVnicki
p5222
aVnicklaus
p5223
aVnicknam
p5224
aVnicol
p5225
aVnicola
p5226
aVnicolett
p5227
aVnigel
p5228
aVnigeria
p5229
aVniggl
p5230
aVnighi
p5231
aVnight
p5232
aVnightmar
p5233
aVniijima
p5234
aVniki
p5235
aVnine
p5236
aVnine-point
p5237
aVnine-year-old
p5238
aVninth
p5239
aVninth-round
p5240
aVnipper
p5241
aVniro
p5242
aVnirvana
p5243
aVnishino-shima
p5244
aVnitrat
p5245
aVnitrogen
p5246
aVnk
p5247
aVno-no
p5248
aVno-on
p5249
aVno-run
p5250
aVnoah
p5251
aVnobel
p5252
aVnobodi
p5253
aVnoc
p5254
aVnocturn
p5255
aVnois
p5256
aVnokia
p5257
aVnomin
p5258
aVnomine
p5259
aVnon
p5260
aVnon-descript
p5261
aVnon-domest
p5262
aVnon-euro
p5263
aVnon-european
p5264
aVnon-govern
p5265
aVnon-government
p5266
aVnon-islam
p5267
aVnon-leth
p5268
aVnon-meat
p5269
aVnon-particip
p5270
aVnon-pay
p5271
aVnon-phys
p5272
aVnon-process
p5273
aVnon-profit
p5274
aVnon-qt
p5275
aVnon-snp
p5276
aVnon-specif
p5277
aVnon-suspici
p5278
aVnon-teach
p5279
aVnon-tox
p5280
aVnone
p5281
aVnonetheless
p5282
aVnonsens
p5283
aVnoodl
p5284
aVnordstrom
p5285
aVnorfolk
p5286
aVnorm
p5287
aVnormal
p5288
aVnorman
p5289
aVnorrish
p5290
aVnorsk
p5291
aVnorth
p5292
aVnorthern
p5293
aVnorway
p5294
aVnorwich
p5295
aVnose
p5296
aVnose-job
p5297
aVnostalgia
p5298
aVnostril
p5299
aVnot-for-profit
p5300
aVnotabl
p5301
aVnotch
p5302
aVnote
p5303
aVnotebook
p5304
aVnoth
p5305
aVnotic
p5306
aVnotori
p5307
aVnottingham
p5308
aVnottinghamshir
p5309
aVnovel
p5310
aVnovelist
p5311
aVnovemb
p5312
aVnovic
p5313
aVnowaday
p5314
aVnowher
p5315
aVnpower
p5316
aVnsa
p5317
aVnuanc
p5318
aVnuclear
p5319
aVnudg
p5320
aVnuffield
p5321
aVnugent
p5322
aVnumber
p5323
aVnumer
p5324
aVnurs
p5325
aVnurseri
p5326
aVnurtur
p5327
aVnut
p5328
aVnutini
p5329
aVnutrit
p5330
aVnvidia
p5331
aVnyman
p5332
aVoak
p5333
aVoareford
p5334
aVoasi
p5335
aVobama
p5336
aVobject
p5337
aVoblig
p5338
aVobliqu
p5339
aVoblivi
p5340
aVobriain
p5341
aVobscen
p5342
aVobscur
p5343
aVobserv
p5344
aVobsess
p5345
aVobstacl
p5346
aVobstruct
p5347
aVobtain
p5348
aVobvious
p5349
aVocbc
p5350
aVoccas
p5351
aVoccasion
p5352
aVoccupi
p5353
aVoccur
p5354
aVoccurr
p5355
aVocd
p5356
aVocean
p5357
aVocean-floor
p5358
aVoceanethix
p5359
aVoceanograph
p5360
aVoclock
p5361
aVoconnor
p5362
aVoctob
p5363
aVodd
p5364
aVoecd
p5365
aVoeld
p5366
aVoetting
p5367
aVoff-target
p5368
aVoffa
p5369
aVoffenc
p5370
aVoffend
p5371
aVoffer
p5372
aVoffic
p5373
aVoffici
p5374
aVoffset
p5375
aVoffshor
p5376
aVoffsid
p5377
aVofqual
p5378
aVofst
p5379
aVoften
p5380
aVogasawara
p5381
aVogden
p5382
aVoh
p5383
aVohio
p5384
aVoie
p5385
aVoil
p5386
aVokcupid
p5387
aVokerek
p5388
aVolazab
p5389
aVold
p5390
aVold-fashion
p5391
aVolder
p5392
aVoldest
p5393
aVoleksandr
p5394
aVoligarch
p5395
aVolivi
p5396
aVolymp
p5397
aVolympian
p5398
aVomega
p5399
aVon
p5400
aVon-demand
p5401
aVonboard
p5402
aVonce-in-a-lifetim
p5403
aVone
p5404
aVone-day
p5405
aVone-fiftieth
p5406
aVone-hand
p5407
aVone-man
p5408
aVone-off
p5409
aVone-ov
p5410
aVone-size-fits-al
p5411
aVone-third
p5412
aVongo
p5413
aVonlin
p5414
aVonlook
p5415
aVonshor
p5416
aVonslaught
p5417
aVonto
p5418
aVonward
p5419
aVoor
p5420
aVoosthuizen
p5421
aVopen
p5422
aVopen-shut
p5423
aVopen-sourc
p5424
aVopencast
p5425
aVopenssl
p5426
aVoper
p5427
aVopera
p5428
aVopinion
p5429
aVoppon
p5430
aVopportun
p5431
aVopportunist
p5432
aVoppos
p5433
aVopposit
p5434
aVopt
p5435
aVopt-out
p5436
aVopta
p5437
aVoptic
p5438
aVoptician
p5439
aVoptim
p5440
aVoptimist
p5441
aVoption
p5442
aVorang
p5443
aVorbit
p5444
aVorchestra
p5445
aVordeal
p5446
aVorder
p5447
aVordinari
p5448
aVorf
p5449
aVorgan
p5450
aVorganis
p5451
aVorgasm
p5452
aVorient
p5453
aVorigin
p5454
aVorkney
p5455
aVorphan
p5456
aVorwel
p5457
aVosbert
p5458
aVosborn
p5459
aVoscar-win
p5460
aVoscil
p5461
aVossif
p5462
aVothello
p5463
aVother
p5464
aVotherwis
p5465
aVought
p5466
aVoust
p5467
aVout
p5468
aVout-of-area
p5469
aVout-of-hour
p5470
aVout-of-school
p5471
aVout-of-touch
p5472
aVoutag
p5473
aVoutbreak
p5474
aVoutcom
p5475
aVoutcri
p5476
aVoutdat
p5477
aVoutdoor
p5478
aVoutfit
p5479
aVoutgo
p5480
aVouting
p5481
aVoutlaw
p5482
aVoutlet
p5483
aVoutlin
p5484
aVoutlook
p5485
aVoutmuscl
p5486
aVoutperform
p5487
aVoutput
p5488
aVoutright
p5489
aVoutsid
p5490
aVoutstand
p5491
aVoutward
p5492
aVovat
p5493
aVover
p5494
aVover-arch
p5495
aVover-engag
p5496
aVover-lord
p5497
aVover-reli
p5498
aVover-run
p5499
aVover-s
p5500
aVoveral
p5501
aVoverarch
p5502
aVoverblown
p5503
aVovercapac
p5504
aVovercast
p5505
aVovercom
p5506
aVovercrowd
p5507
aVoverdon
p5508
aVoverdos
p5509
aVoverdraft
p5510
aVoverhaul
p5511
aVoverheard
p5512
aVoverinfl
p5513
aVoverlap
p5514
aVovernight
p5515
aVoverrid
p5516
aVoverse
p5517
aVoversea
p5518
aVoverseen
p5519
aVoversight
p5520
aVoverst
p5521
aVoversuppli
p5522
aVovertak
p5523
aVovertook
p5524
aVoverus
p5525
aVoverwhelm
p5526
aVovul
p5527
aVowe
p5528
aVowen
p5529
aVowl
p5530
aVowlet
p5531
aVowlet-nightjar
p5532
aVown
p5533
aVowner
p5534
aVownership
p5535
aVoxford
p5536
aVoxfordshir
p5537
aVoxley
p5538
aVoxygen
p5539
aVp
p5540
aVpa
p5541
aVpablo
p5542
aVpace
p5543
aVpacemak
p5544
aVpaceman
p5545
aVpachauri
p5546
aVpacif
p5547
aVpack
p5548
aVpackag
p5549
aVpacket
p5550
aVpackman
p5551
aVpacquiao
p5552
aVpad
p5553
aVpaddi
p5554
aVpadlock
p5555
aVpage
p5556
aVpaid
p5557
aVpain
p5558
aVpainless
p5559
aVpainstak
p5560
aVpaint
p5561
aVpaintbrush
p5562
aVpair
p5563
aVpakistan
p5564
aVpalac
p5565
aVpalacehul
p5566
aVpalestinian
p5567
aVpalin
p5568
aVpalmer
p5569
aVpanacea
p5570
aVpandan
p5571
aVpander
p5572
aVpanel
p5573
aVpanellist
p5574
aVpanic
p5575
aVpanicki
p5576
aVpant
p5577
aVpaolo
p5578
aVpapaya
p5579
aVpaper
p5580
aVpapillomavirus
p5581
aVpar
p5582
aVpar-fiv
p5583
aVpar-four
p5584
aVpar-thre
p5585
aVpara-cycl
p5586
aVpara-cyclist
p5587
aVparacel
p5588
aVparadox
p5589
aVparagraph
p5590
aVparallel
p5591
aVparalymp
p5592
aVparalympian
p5593
aVparamed
p5594
aVparamet
p5595
aVparent
p5596
aVpari
p5597
aVparis-bas
p5598
aVparis-roubaix
p5599
aVpariti
p5600
aVpark
p5601
aVparklif
p5602
aVparliament
p5603
aVparliamentari
p5604
aVparoxetin
p5605
aVparr
p5606
aVparrot
p5607
aVpart
p5608
aVpart-tim
p5609
aVparti
p5610
aVpartial
p5611
aVparticip
p5612
aVparticl
p5613
aVparticular
p5614
aVpartner
p5615
aVpartnership
p5616
aVpass
p5617
aVpassag
p5618
aVpassion
p5619
aVpassiv
p5620
aVpassport
p5621
aVpassword
p5622
aVpast
p5623
aVpasta
p5624
aVpat
p5625
aVpatch
p5626
aVpatchi
p5627
aVpatchwork
p5628
aVpate
p5629
aVpatel
p5630
aVpaterson
p5631
aVpath
p5632
aVpatholog
p5633
aVpathway
p5634
aVpatient
p5635
aVpaton
p5636
aVpatricia
p5637
aVpatrick
p5638
aVpatriot
p5639
aVpatrol
p5640
aVpatron
p5641
aVpatronis
p5642
aVpatsi
p5643
aVpattern
p5644
aVpaul
p5645
aVpaula
p5646
aVpaulin
p5647
aVpave
p5648
aVpavilion
p5649
aVpavlova
p5650
aVpavoni
p5651
aVpaxman
p5652
aVpaxo
p5653
aVpay
p5654
aVpayback
p5655
aVpayment
p5656
aVpayn
p5657
aVpaypal
p5658
aVpbs
p5659
aVpc
p5660
aVpcs
p5661
aVpdsa
p5662
aVpe
p5663
aVpeac
p5664
aVpeach
p5665
aVpeak
p5666
aVpeanut
p5667
aVpeati
p5668
aVpeculiar
p5669
aVpedrosa
p5670
aVpeer
p5671
aVpeer-to-p
p5672
aVpeerag
p5673
aVpeerless
p5674
aVpeg
p5675
aVpellegrini
p5676
aVpelvic
p5677
aVpembrokeshir
p5678
aVpen
p5679
aVpenalti
p5680
aVpencil
p5681
aVpendleton
p5682
aVpenetr
p5683
aVpeninsula
p5684
aVpenn
p5685
aVpennsylvania
p5686
aVpension
p5687
aVpent-up
p5688
aVpenultim
p5689
aVpeopl
p5690
aVpepi
p5691
aVpeptid
p5692
aVper
p5693
aVperalta
p5694
aVperceiv
p5695
aVpercentag
p5696
aVpercept
p5697
aVperch
p5698
aVperegrin
p5699
aVperfect
p5700
aVperfectionist
p5701
aVperform
p5702
aVperhap
p5703
aVperiod
p5704
aVperman
p5705
aVpermiss
p5706
aVpermit
p5707
aVpernici
p5708
aVperpetr
p5709
aVpers
p5710
aVpersecut
p5711
aVpersever
p5712
aVpersist
p5713
aVperson
p5714
aVpersonal-best
p5715
aVpersonnel
p5716
aVperspect
p5717
aVpersuad
p5718
aVperth
p5719
aVpertin
p5720
aVpervas
p5721
aVpervers
p5722
aVpessimist
p5723
aVpesticid
p5724
aVpet
p5725
aVpete
p5726
aVpeter
p5727
aVpeterborough
p5728
aVpeterhead
p5729
aVpetit
p5730
aVpetrifi
p5731
aVpetrol
p5732
aVpetrol-snif
p5733
aVpetrucci
p5734
aVpetul
p5735
aVpetya
p5736
aVpga
p5737
aVphaedra
p5738
aVphallic
p5739
aVpharma
p5740
aVpharma-quick-step
p5741
aVpharmaci
p5742
aVphase
p5743
aVphd
p5744
aVphenomen
p5745
aVphenomenon
p5746
aVphil
p5747
aVphilanthrop
p5748
aVphilanthropist
p5749
aVphilharmon
p5750
aVphilip
p5751
aVphilipp
p5752
aVphilippin
p5753
aVphillip
p5754
aVphish
p5755
aVphoenix
p5756
aVphone
p5757
aVphoto
p5758
aVphotograph
p5759
aVphotographi
p5760
aVphotovolta
p5761
aVphrase
p5762
aVphysic
p5763
aVphysicist
p5764
aVphysiolog
p5765
aVphysiotherapi
p5766
aVpi
p5767
aVpick
p5768
aVpicki
p5769
aVpickl
p5770
aVpictur
p5771
aVpicturesqu
p5772
aVpiec
p5773
aVpiecem
p5774
aVpierc
p5775
aVpieri
p5776
aVpigeon
p5777
aVpigeonhol
p5778
aVpiggi
p5779
aVpile
p5780
aVpilgrim
p5781
aVpilkington
p5782
aVpilot
p5783
aVpimento
p5784
aVpin
p5785
aVpin-point
p5786
aVpinch
p5787
aVpine
p5788
aVping
p5789
aVpinger
p5790
aVpinger-loc
p5791
aVpink
p5792
aVpinpoint
p5793
aVpinsent
p5794
aVpioneer
p5795
aVpipelin
p5796
aVpiraci
p5797
aVpiraeus
p5798
aVpirat
p5799
aVpisa
p5800
aVpistachio
p5801
aVpit
p5802
aVpitch
p5803
aVpitsuwan
p5804
aVpixi
p5805
aVpizza
p5806
aVpl
p5807
aVplace
p5808
aVplacement
p5809
aVplagu
p5810
aVplaid
p5811
aVplan
p5812
aVplane
p5813
aVplanet
p5814
aVplanner
p5815
aVplant
p5816
aVplantat
p5817
aVplantation-styl
p5818
aVplastic
p5819
aVplate
p5820
aVplateau
p5821
aVplatform
p5822
aVplatonova
p5823
aVplausibl
p5824
aVplay
p5825
aVplay-bas
p5826
aVplayback
p5827
aVplayer
p5828
aVplayground
p5829
aVplaygroup
p5830
aVplaywright
p5831
aVplea
p5832
aVplead
p5833
aVpleas
p5834
aVpleasanc
p5835
aVpleasant
p5836
aVpledg
p5837
aVplenti
p5838
aVplonk
p5839
aVplot
p5840
aVplug
p5841
aVplug-and-play
p5842
aVplumag
p5843
aVplummet
p5844
aVplung
p5845
aVplus
p5846
aVplymouth
p5847
aVplymouth-bas
p5848
aVpm
p5849
aVpms
p5850
aVpneumococc
p5851
aVpoacher
p5852
aVpocock
p5853
aVpodium
p5854
aVpoem
p5855
aVpoet
p5856
aVpogonophobia
p5857
aVpoint
p5858
aVpointer
p5859
aVpois
p5860
aVpoke
p5861
aVpoland
p5862
aVpolar
p5863
aVpolar-orbit
p5864
aVpole
p5865
aVpolic
p5866
aVpolicemen
p5867
aVpolici
p5868
aVpolicymak
p5869
aVpolish
p5870
aVpolit
p5871
aVpolitician
p5872
aVpoll
p5873
aVpollut
p5874
aVpolytechn
p5875
aVpompeii
p5876
aVpompidou
p5877
aVpond
p5878
aVponder
p5879
aVpool
p5880
aVpoor
p5881
aVpoorer
p5882
aVpoorest
p5883
aVpop
p5884
aVpop-up
p5885
aVpoppin
p5886
aVpopul
p5887
aVpopular
p5888
aVpopulus
p5889
aVpork
p5890
aVporn
p5891
aVpornographi
p5892
aVporous
p5893
aVporqu
p5894
aVport
p5895
aVportabl
p5896
aVporteous
p5897
aVportfolio
p5898
aVportillo
p5899
aVportion
p5900
aVportrait
p5901
aVportray
p5902
aVportsmouth
p5903
aVpose
p5904
aVposit
p5905
aVpossess
p5906
aVpossibl
p5907
aVpost
p5908
aVpost-
p5909
aVpost-big-bang
p5910
aVpost-impressionist
p5911
aVpost-iraq
p5912
aVpost-mortem
p5913
aVpost-pc
p5914
aVpost-transpl
p5915
aVpost-traumat
p5916
aVposter
p5917
aVpostgradu
p5918
aVpostpon
p5919
aVpot
p5920
aVpot-hol
p5921
aVpotent
p5922
aVpotenti
p5923
aVpotter
p5924
aVpotteri
p5925
aVpotting
p5926
aVpoulter
p5927
aVpounc
p5928
aVpound
p5929
aVpoverti
p5930
aVpower
p5931
aVpowerbas
p5932
aVpowerboat
p5933
aVpowerhous
p5934
aVpowersport
p5935
aVpoyri
p5936
aVpp
p5937
aVppa
p5938
aVppm
p5939
aVpr
p5940
aVpractic
p5941
aVpraefinium
p5942
aVprais
p5943
aVprayer
p5944
aVpre
p5945
aVpre-k
p5946
aVpre-kindergarten
p5947
aVpre-nat
p5948
aVpre-pay
p5949
aVpre-rac
p5950
aVpre-record
p5951
aVpre-school
p5952
aVpreach
p5953
aVpreacher
p5954
aVpreah
p5955
aVprecautionari
p5956
aVpreced
p5957
aVprecis
p5958
aVpreconcept
p5959
aVpredat
p5960
aVpredecessor
p5961
aVpredict
p5962
aVpredomin
p5963
aVpreemin
p5964
aVpreet
p5965
aVprefer
p5966
aVpregnanc
p5967
aVprejudic
p5968
aVpremier
p5969
aVpremiership
p5970
aVpremis
p5971
aVpremium
p5972
aVpreoccup
p5973
aVprepar
p5974
aVprepared
p5975
aVprescrib
p5976
aVprescript
p5977
aVpresenc
p5978
aVpresent
p5979
aVpresent-day
p5980
aVpreserv
p5981
aVpresid
p5982
aVpresidenti
p5983
aVpress
p5984
aVpressur
p5985
aVpressure-driven
p5986
aVpressuris
p5987
aVprestigi
p5988
aVpreston
p5989
aVpresum
p5990
aVpretend
p5991
aVpretenti
p5992
aVpretti
p5993
aVprevail
p5994
aVpreval
p5995
aVprevent
p5996
aVpreview
p5997
aVprevious
p5998
aVprey
p5999
aVprice
p6000
aVpride
p6001
aVprimari
p6002
aVprimarili
p6003
aVprime
p6004
aVprincip
p6005
aVprincipl
p6006
aVprint
p6007
aVprior
p6008
aVprioriti
p6009
aVprioritis
p6010
aVpriscah
p6011
aVprison
p6012
aVprivat
p6013
aVprivatis
p6014
aVpriveleg
p6015
aVprize
p6016
aVpro
p6017
aVpro-coal
p6018
aVpro-euro
p6019
aVpro-european
p6020
aVpro-pred
p6021
aVpro-rector
p6022
aVpro-russian
p6023
aVprobabl
p6024
aVprobat
p6025
aVprobe
p6026
aVproblem
p6027
aVprocedur
p6028
aVproceed
p6029
aVprocess
p6030
aVprocessor
p6031
aVproclaim
p6032
aVprocur
p6033
aVprodig
p6034
aVprodigi
p6035
aVproduc
p6036
aVproduct
p6037
aVprof
p6038
aVprofess
p6039
aVprofession
p6040
aVprofessionalis
p6041
aVprofessor
p6042
aVprofici
p6043
aVprofil
p6044
aVprofit
p6045
aVprofound
p6046
aVprognosi
p6047
aVprogram
p6048
aVprogramm
p6049
aVprogramme-mak
p6050
aVprogress
p6051
aVprohibit
p6052
aVproject
p6053
aVprolong
p6054
aVpromin
p6055
aVpromis
p6056
aVpromiscu
p6057
aVpromot
p6058
aVprompt
p6059
aVprone
p6060
aVprop
p6061
aVpropag
p6062
aVpropel
p6063
aVproper
p6064
aVproperti
p6065
aVproport
p6066
aVpropos
p6067
aVproschim
p6068
aVprose
p6069
aVprosecut
p6070
aVprosecutor
p6071
aVprospect
p6072
aVprosper
p6073
aVprostrat
p6074
aVprotect
p6075
aVprotein
p6076
aVprotest
p6077
aVprotocol
p6078
aVprototyp
p6079
aVproud
p6080
aVprove
p6081
aVproven
p6082
aVproverb
p6083
aVproverbi
p6084
aVprovid
p6085
aVprovinc
p6086
aVprovis
p6087
aVprovoc
p6088
aVprovodnikov
p6089
aVprovok
p6090
aVprowess
p6091
aVprowl
p6092
aVprs
p6093
aVprudent
p6094
aVpsaki
p6095
aVpsychiatrist
p6096
aVpsycholog
p6097
aVpsychometr
p6098
aVpsychosi
p6099
aVpsychotherapi
p6100
aVptsd
p6101
aVpub
p6102
aVpublic
p6103
aVpublicis
p6104
aVpublish
p6105
aVpuccini
p6106
aVpuff
p6107
aVpuffa
p6108
aVpuli
p6109
aVpull
p6110
aVpulp
p6111
aVpump
p6112
aVpunch
p6113
aVpuncheon
p6114
aVpunctuat
p6115
aVpundit
p6116
aVpunish
p6117
aVpunit
p6118
aVpunt
p6119
aVpup
p6120
aVpupil
p6121
aVpurchas
p6122
aVpure
p6123
aVpurg
p6124
aVpurgatori
p6125
aVpurifi
p6126
aVpurnima
p6127
aVpurpl
p6128
aVpurport
p6129
aVpurpos
p6130
aVpurs
p6131
aVpurse-str
p6132
aVpursu
p6133
aVpursuit
p6134
aVpush
p6135
aVput
p6136
aVputin
p6137
aVputney
p6138
aVputt
p6139
aVpuzzl
p6140
aVpv
p6141
aVpyjama
p6142
aVq
p6143
aVqatar
p6144
aVqc
p6145
aVqiao
p6146
aVqts
p6147
aVquad
p6148
aVquadrupl
p6149
aVqualif
p6150
aVqualifi
p6151
aVqualiti
p6152
aVqualm
p6153
aVquango
p6154
aVquantit
p6155
aVquantiti
p6156
aVquarri
p6157
aVquarter
p6158
aVquarter-fin
p6159
aVquartet
p6160
aVquasar
p6161
aVquash
p6162
aVqueasi
p6163
aVqueen
p6164
aVqueensland
p6165
aVquest
p6166
aVquestion
p6167
aVquestionnair
p6168
aVqueue
p6169
aVquick
p6170
aVquick-fir
p6171
aVquick-step
p6172
aVquick-temp
p6173
aVquicker
p6174
aVquickest
p6175
aVquicksand
p6176
aVquiet
p6177
aVquieter
p6178
aVquietest
p6179
aVquiller
p6180
aVquilt
p6181
aVquintessenti
p6182
aVquit
p6183
aVquiz
p6184
aVquot
p6185
aVrabat
p6186
aVrabbit
p6187
aVrabbit-own
p6188
aVrace
p6189
aVracer
p6190
aVrachael
p6191
aVrachel
p6192
aVracial
p6193
aVracist
p6194
aVrack
p6195
aVracket
p6196
aVradar
p6197
aVradcliff
p6198
aVradic
p6199
aVradio
p6200
aVradioact
p6201
aVradiohead
p6202
aVradoslaw
p6203
aVrae
p6204
aVraeng
p6205
aVraffl
p6206
aVraft
p6207
aVraheem
p6208
aVraid
p6209
aVrail
p6210
aVrailway
p6211
aVrain
p6212
aVrain-ruin
p6213
aVrainfal
p6214
aVrainforest
p6215
aVrais
p6216
aVraisanen
p6217
aVrajendra
p6218
aVramp
p6219
aVrampag
p6220
aVran
p6221
aVrang
p6222
aVranger
p6223
aVrangoon
p6224
aVrank
p6225
aVrankin
p6226
aVrape
p6227
aVrapid
p6228
aVrapid-respons
p6229
aVrapport
p6230
aVrare
p6231
aVrariti
p6232
aVrash
p6233
aVraspberri
p6234
aVrat
p6235
aVrate
p6236
aVrather
p6237
aVratio
p6238
aVration
p6239
aVrattl
p6240
aVraucous
p6241
aVraw
p6242
aVray
p6243
aVraymond
p6244
aVrazor
p6245
aVrd
p6246
aVre
p6247
aVre-creat
p6248
aVre-emerg
p6249
aVre-emphasis
p6250
aVre-examin
p6251
aVre-learn
p6252
aVre-open
p6253
aVre-oxygen
p6254
aVre-program
p6255
aVre-wild
p6256
aVre-writ
p6257
aVreach
p6258
aVreachabl
p6259
aVreact
p6260
aVreaction
p6261
aVread
p6262
aVreader
p6263
aVreadi
p6264
aVready-mad
p6265
aVreal
p6266
aVreal-lif
p6267
aVreal-tim
p6268
aVrealis
p6269
aVrealist
p6270
aVrealiti
p6271
aVrealli
p6272
aVrealtor
p6273
aVrear
p6274
aVrearrang
p6275
aVreason
p6276
aVreassur
p6277
aVrebalanc
p6278
aVrebecca
p6279
aVrebel
p6280
aVrebound
p6281
aVrebuild
p6282
aVrebuilt
p6283
aVrecal
p6284
aVreceipt
p6285
aVreceiv
p6286
aVrecent
p6287
aVrecept
p6288
aVrecess
p6289
aVrecip
p6290
aVrecipi
p6291
aVreckon
p6292
aVreclaim
p6293
aVreclin
p6294
aVrecognis
p6295
aVrecognit
p6296
aVrecommend
p6297
aVreconcil
p6298
aVreconcili
p6299
aVreconnect
p6300
aVreconstruct
p6301
aVrecord
p6302
aVrecord-break
p6303
aVrecov
p6304
aVrecoveri
p6305
aVrecruit
p6306
aVred
p6307
aVredefin
p6308
aVredempt
p6309
aVredesign
p6310
aVredford
p6311
aVredirect
p6312
aVrediscoveri
p6313
aVredrawn
p6314
aVredress
p6315
aVredskin
p6316
aVreduc
p6317
aVreduct
p6318
aVreed
p6319
aVreel
p6320
aVreev
p6321
aVref
p6322
aVrefer
p6323
aVrefere
p6324
aVreferendum
p6325
aVreferr
p6326
aVrefin
p6327
aVrefinanc
p6328
aVreflect
p6329
aVreforest
p6330
aVreform
p6331
aVrefrain
p6332
aVrefresh
p6333
aVrefuge
p6334
aVrefurbish
p6335
aVrefus
p6336
aVregain
p6337
aVregard
p6338
aVregardless
p6339
aVregen
p6340
aVregener
p6341
aVregim
p6342
aVregiment
p6343
aVregion
p6344
aVregist
p6345
aVregret
p6346
aVregrett
p6347
aVregul
p6348
aVregular
p6349
aVregulatori
p6350
aVrehabilit
p6351
aVrehears
p6352
aVreid
p6353
aVreign
p6354
aVreinforc
p6355
aVreintroduc
p6356
aVreinvent
p6357
aVreiter
p6358
aVreitman
p6359
aVreject
p6360
aVrejoic
p6361
aVrejuven
p6362
aVrel
p6363
aVrelat
p6364
aVrelationship
p6365
aVrelax
p6366
aVrelay
p6367
aVreleas
p6368
aVreleg
p6369
aVrelentless
p6370
aVrelev
p6371
aVreli
p6372
aVreliabl
p6373
aVrelianc
p6374
aVrelic
p6375
aVrelief
p6376
aVreligi
p6377
aVreligion
p6378
aVrelish
p6379
aVreloc
p6380
aVreluct
p6381
aVremain
p6382
aVremark
p6383
aVremarri
p6384
aVrematch
p6385
aVremedi
p6386
aVrememb
p6387
aVremembr
p6388
aVremind
p6389
aVreminisc
p6390
aVremix
p6391
aVremora-typ
p6392
aVremortgag
p6393
aVremot
p6394
aVremov
p6395
aVremus
p6396
aVrenal
p6397
aVrenam
p6398
aVrender
p6399
aVrenegoti
p6400
aVrenew
p6401
aVrenewableuk
p6402
aVrenown
p6403
aVrent
p6404
aVreopen
p6405
aVreorganis
p6406
aVrepaid
p6407
aVrepair
p6408
aVrepay
p6409
aVrepeal
p6410
aVrepeat
p6411
aVrepel
p6412
aVrepetit
p6413
aVreplac
p6414
aVreplay
p6415
aVreplenish
p6416
aVrepli
p6417
aVreplic
p6418
aVreport
p6419
aVrepres
p6420
aVrepresent
p6421
aVrepress
p6422
aVreprimand
p6423
aVrepris
p6424
aVreproduct
p6425
aVrepubl
p6426
aVrepublican
p6427
aVrepublish
p6428
aVreput
p6429
aVrequest
p6430
aVrequir
p6431
aVrescu
p6432
aVresearch
p6433
aVresembl
p6434
aVresent
p6435
aVreserv
p6436
aVreset
p6437
aVreshuffl
p6438
aVresid
p6439
aVresidenti
p6440
aVresign
p6441
aVresili
p6442
aVresist
p6443
aVresolut
p6444
aVresolv
p6445
aVreson
p6446
aVresort
p6447
aVresound
p6448
aVresourc
p6449
aVrespect
p6450
aVrespiratori
p6451
aVrespit
p6452
aVrespond
p6453
aVrespons
p6454
aVrest
p6455
aVrestart
p6456
aVrestaur
p6457
aVrestaurant-go
p6458
aVrestitut
p6459
aVrestor
p6460
aVrestraint
p6461
aVrestrict
p6462
aVresult
p6463
aVresum
p6464
aVretail
p6465
aVretain
p6466
aVretel
p6467
aVrethink
p6468
aVretir
p6469
aVretrain
p6470
aVretreat
p6471
aVretriev
p6472
aVretrofit
p6473
aVretrospect
p6474
aVretun
p6475
aVreturn
p6476
aVreunit
p6477
aVreuter
p6478
aVreveal
p6479
aVrevel
p6480
aVrevenu
p6481
aVrever
p6482
aVreverber
p6483
aVrevers
p6484
aVreview
p6485
aVrevis
p6486
aVrevisit
p6487
aVrevitalis
p6488
aVreviv
p6489
aVrevolut
p6490
aVrevolutionari
p6491
aVrevolutionis
p6492
aVreward
p6493
aVrewrit
p6494
aVrey
p6495
aVrezza
p6496
aVrhapsodi
p6497
aVrharrabin
p6498
aVrhetor
p6499
aVrhode
p6500
aVrib
p6501
aVribbl
p6502
aVribi
p6503
aVric
p6504
aVrice
p6505
aVrich
p6506
aVrichard
p6507
aVricher
p6508
aVrichest
p6509
aVrichtaylorbbc
p6510
aVrick
p6511
aVrickaaaay
p6512
aVricki
p6513
aVrid
p6514
aVriddl
p6515
aVride
p6516
aVrider
p6517
aVridicul
p6518
aVrife
p6519
aVrifl
p6520
aVrig
p6521
aVright
p6522
aVright-w
p6523
aVright-wing
p6524
aVrigor
p6525
aVrigour
p6526
aVring
p6527
aVrio
p6528
aVriotous
p6529
aVripe
p6530
aVrippl
p6531
aVrise
p6532
aVrisen
p6533
aVrisk
p6534
aVriski
p6535
aVrisotto
p6536
aVrite
p6537
aVritual
p6538
aVrival
p6539
aVrivalri
p6540
aVroach
p6541
aVroad
p6542
aVroad-rac
p6543
aVroam
p6544
aVroar
p6545
aVroast
p6546
aVrob
p6547
aVrobb
p6548
aVrobber
p6549
aVrobberi
p6550
aVrobbi
p6551
aVrobert
p6552
aVroberto
p6553
aVrobertson
p6554
aVrobi
p6555
aVrobin
p6556
aVrobinson
p6557
aVrobison
p6558
aVroboclam
p6559
aVrobot
p6560
aVroboticist
p6561
aVrobson
p6562
aVrobust
p6563
aVrochdal
p6564
aVrock
p6565
aVrocket
p6566
aVrocki
p6567
aVrodent
p6568
aVrodger
p6569
aVroger
p6570
aVrogu
p6571
aVrole
p6572
aVrole-model
p6573
aVroll
p6574
aVroll-out
p6575
aVrollercoaster-lik
p6576
aVrollout
p6577
aVroman
p6578
aVromanc
p6579
aVromanian
p6580
aVromero
p6581
aVron
p6582
aVroof
p6583
aVrooftop
p6584
aVroom
p6585
aVroost
p6586
aVroot
p6587
aVrope
p6588
aVrori
p6589
aVrosch
p6590
aVrose
p6591
aVrosi
p6592
aVross
p6593
aVrossi
p6594
aVrot
p6595
aVrotat
p6596
aVrothenberg
p6597
aVrotten
p6598
aVroubaix
p6599
aVrough
p6600
aVround
p6601
aVround-up
p6602
aVround-wreck
p6603
aVrourk
p6604
aVrout
p6605
aVrouter
p6606
aVroutin
p6607
aVrov
p6608
aVrove
p6609
aVrow
p6610
aVrowl
p6611
aVrowley
p6612
aVrowsel
p6613
aVroyal
p6614
aVroyalist
p6615
aVroyalti
p6616
aVrsc
p6617
aVrt
p6618
aVru
p6619
aVrubasingham
p6620
aVrubinsohn
p6621
aVrucksack
p6622
aVrude
p6623
aVrudg
p6624
aVrue
p6625
aVruffl
p6626
aVrug
p6627
aVrugbi
p6628
aVrugunda
p6629
aVruhakana
p6630
aVruin
p6631
aVrule
p6632
aVruler
p6633
aVrumour
p6634
aVrun
p6635
aVrun-in
p6636
aVrun-up
p6637
aVrunner
p6638
aVrunner-up
p6639
aVrunni
p6640
aVrunnymed
p6641
aVrunway
p6642
aVrupert
p6643
aVrural
p6644
aVrush
p6645
aVrush-hour
p6646
aVruslan
p6647
aVrussel
p6648
aVrussia
p6649
aVrussian
p6650
aVrussian-speak
p6651
aVrutger
p6652
aVryan
p6653
aVryder
p6654
aVsaber
p6655
aVsabina
p6656
aVsabrina
p6657
aVsac
p6658
aVsack
p6659
aVsacrific
p6660
aVsad
p6661
aVsadi
p6662
aVsaeed
p6663
aVsafe
p6664
aVsafeguard
p6665
aVsafer
p6666
aVsafeti
p6667
aVsahara
p6668
aVsaid
p6669
aVsail
p6670
aVsaint
p6671
aVsajid
p6672
aVsajiv
p6673
aVsake
p6674
aVsalad
p6675
aVsalari
p6676
aVsalazar
p6677
aVsale
p6678
aVsaleroom
p6679
aVsalford
p6680
aVsaliva
p6681
aVsalli
p6682
aVsalmond
p6683
aVsaloon
p6684
aVsalt
p6685
aVsalti
p6686
aVsalut
p6687
aVsam
p6688
aVsamir
p6689
aVsammi
p6690
aVsampl
p6691
aVsamsung
p6692
aVsan
p6693
aVsanction
p6694
aVsand
p6695
aVsandford
p6696
aVsandi
p6697
aVsandieson
p6698
aVsandwich
p6699
aVsanford
p6700
aVsanghera
p6701
aVsank
p6702
aVsantiago
p6703
aVsara
p6704
aVsaracen
p6705
aVsarah
p6706
aVsat
p6707
aVsat-nav
p6708
aVsatellit
p6709
aVsatellite-navig
p6710
aVsatir
p6711
aVsatisfact
p6712
aVsatisfi
p6713
aVsatur
p6714
aVsaturday
p6715
aVsaturn
p6716
aVsauc
p6717
aVsaucepan
p6718
aVsaudi
p6719
aVsaunder
p6720
aVsavag
p6721
aVsave
p6722
aVsaver
p6723
aVsavil
p6724
aVsaviok
p6725
aVsaviour
p6726
aVsaw
p6727
aVsay
p6728
aVscaffold
p6729
aVscale
p6730
aVscale-out
p6731
aVscalloped-edg
p6732
aVscalp
p6733
aVscan
p6734
aVscandal
p6735
aVscanner
p6736
aVscapegoat
p6737
aVscare
p6738
aVscarv
p6739
aVscath
p6740
aVscatter
p6741
aVscenario
p6742
aVscene
p6743
aVscent
p6744
aVsceptic
p6745
aVschaeubl
p6746
aVschedul
p6747
aVscheme
p6748
aVschizophrenia
p6749
aVschleicher
p6750
aVschneider
p6751
aVschneier
p6752
aVscholar
p6753
aVscholarship
p6754
aVschool
p6755
aVschool-bas
p6756
aVschool-l
p6757
aVschoolboy
p6758
aVschoolchildren
p6759
aVschoolday
p6760
aVschulz-hopfn
p6761
aVschwartzel
p6762
aVschwarzenneg
p6763
aVsci-fi
p6764
aVscienc
p6765
aVscience-bas
p6766
aVscientif
p6767
aVscientist
p6768
aVscoop
p6769
aVscope
p6770
aVscore
p6771
aVscoreboard
p6772
aVscorer
p6773
aVscot
p6774
aVscotch
p6775
aVscotland
p6776
aVscotrail
p6777
aVscott
p6778
aVscottish
p6779
aVscottish-train
p6780
aVscrambl
p6781
aVscrap
p6782
aVscrape
p6783
aVscratch
p6784
aVscreen
p6785
aVscript
p6786
aVscruffi
p6787
aVscuba
p6788
aVscuf
p6789
aVscum
p6790
aVscuttl
p6791
aVsderot
p6792
aVsdp
p6793
aVsds
p6794
aVsea
p6795
aVsea-ic
p6796
aVsea-level
p6797
aVseab
p6798
aVseafloor
p6799
aVseafood
p6800
aVseam
p6801
aVseamless
p6802
aVseamount
p6803
aVsearch
p6804
aVseason
p6805
aVseason-ticket
p6806
aVseat
p6807
aVseat-sav
p6808
aVseater
p6809
aVseattl
p6810
aVsec
p6811
aVseclus
p6812
aVsecond
p6813
aVsecond-half
p6814
aVsecond-plac
p6815
aVsecond-row
p6816
aVsecondari
p6817
aVsecreci
p6818
aVsecret
p6819
aVsecretari
p6820
aVsecretary-gener
p6821
aVsect
p6822
aVsection
p6823
aVsector
p6824
aVsecur
p6825
aVsecurity-relev
p6826
aVsee
p6827
aVseed
p6828
aVseedr
p6829
aVseek
p6830
aVseeker
p6831
aVseem
p6832
aVseen
p6833
aVseggelman
p6834
aVsegment
p6835
aVseismic
p6836
aVseiz
p6837
aVselect
p6838
aVself
p6839
aVself-assembl
p6840
aVself-author
p6841
aVself-belief
p6842
aVself-consci
p6843
aVself-contain
p6844
aVself-control
p6845
aVself-deprec
p6846
aVself-describ
p6847
aVself-driv
p6848
aVself-employ
p6849
aVself-identifi
p6850
aVself-imag
p6851
aVself-mad
p6852
aVself-organis
p6853
aVself-portrait
p6854
aVself-reli
p6855
aVself-rul
p6856
aVself-sign
p6857
aVself-sustain
p6858
aVself-tan
p6859
aVself-taught
p6860
aVselfi
p6861
aVsell
p6862
aVsell-bi
p6863
aVseller
p6864
aVsemen
p6865
aVsemi-fin
p6866
aVsemi-profession
p6867
aVsemin
p6868
aVsenat
p6869
aVsend
p6870
aVsenden
p6871
aVsenior
p6872
aVsens
p6873
aVsensat
p6874
aVsensibl
p6875
aVsensit
p6876
aVsensor
p6877
aVsent
p6878
aVsentenc
p6879
aVsentinel
p6880
aVsentinel-a
p6881
aVsentinel-b
p6882
aVsentinel-them
p6883
aVseoul
p6884
aVsep
p6885
aVsepar
p6886
aVseparatist
p6887
aVseptemb
p6888
aVsequel
p6889
aVsequenc
p6890
aVseren
p6891
aVsergio
p6892
aVseri
p6893
aVserious
p6894
aVserv
p6895
aVservant
p6896
aVserver
p6897
aVservic
p6898
aVservicemen
p6899
aVsession
p6900
aVset
p6901
aVset-piec
p6902
aVsettl
p6903
aVsettlement
p6904
aVsetup
p6905
aVsevastopol
p6906
aVseven
p6907
aVseven-strong
p6908
aVseventh
p6909
aVsever
p6910
aVsewag
p6911
aVsewer
p6912
aVsex
p6913
aVsexminst
p6914
aVsexual
p6915
aVsg
p6916
aVshaaiq
p6917
aVshabana
p6918
aVshackel
p6919
aVshade
p6920
aVshadow
p6921
aVshadowi
p6922
aVshake
p6923
aVshake-up
p6924
aVshakeout
p6925
aVshaker
p6926
aVshakespear
p6927
aVshakhtar
p6928
aVshale
p6929
aVshall
p6930
aVshallow
p6931
aVshambl
p6932
aVshame
p6933
aVshampoo
p6934
aVshane
p6935
aVshanghai
p6936
aVshape
p6937
aVshapp
p6938
aVsharanjit
p6939
aVshare
p6940
aVsharehold
p6941
aVsharia
p6942
aVshark
p6943
aVsharp
p6944
aVsharpen
p6945
aVsharpl
p6946
aVsharpli
p6947
aVshatter
p6948
aVshave
p6949
aVshawshank
p6950
aVshearer
p6951
aVshed
p6952
aVsheep
p6953
aVsheer
p6954
aVsheeran
p6955
aVsheet
p6956
aVsheff
p6957
aVsheffield
p6958
aVsheikh
p6959
aVshell
p6960
aVshenton
p6961
aVshepherd
p6962
aVsherlock
p6963
aVsherratt
p6964
aVshes
p6965
aVshetland
p6966
aVshi
p6967
aVshiel
p6968
aVshield
p6969
aVshift
p6970
aVshillinglaw
p6971
aVshindig
p6972
aVshine
p6973
aVship
p6974
aVshirt
p6975
aVshock
p6976
aVshoe
p6977
aVshoestr
p6978
aVshona
p6979
aVshoot
p6980
aVshoot-out
p6981
aVshop
p6982
aVshore
p6983
aVshort
p6984
aVshort-term
p6985
aVshortag
p6986
aVshorter
p6987
aVshot
p6988
aVshotgun
p6989
aVshotton
p6990
aVshoulder
p6991
aVshouldnt
p6992
aVshout
p6993
aVshow
p6994
aVshowcas
p6995
aVshowdown
p6996
aVshown
p6997
aVshropshir
p6998
aVshrunk
p6999
aVshrunken
p7000
aVshtokvych
p7001
aVshuffl
p7002
aVshukman
p7003
aVshun
p7004
aVshunt
p7005
aVshut
p7006
aVshutdown
p7007
aVsia
p7008
aVsibl
p7009
aVsick
p7010
aVsid
p7011
aVside
p7012
aVside-by-sid
p7013
aVside-scann
p7014
aVside-sonar
p7015
aVside-step
p7016
aVsideway
p7017
aVsierra
p7018
aVsigh
p7019
aVsight
p7020
aVsigma
p7021
aVsign
p7022
aVsignal
p7023
aVsignatur
p7024
aVsignific
p7025
aVsilenc
p7026
aVsilent
p7027
aVsilhouett
p7028
aVsilicon
p7029
aVsilli
p7030
aVsilt
p7031
aVsilva
p7032
aVsilver
p7033
aVsilvologist
p7034
aVsimblet
p7035
aVsimeon
p7036
aVsimilar
p7037
aVsimmond
p7038
aVsimon
p7039
aVsimonsen
p7040
aVsimpl
p7041
aVsimpler
p7042
aVsimplest
p7043
aVsimpli
p7044
aVsimplic
p7045
aVsimplifi
p7046
aVsimul
p7047
aVsimultan
p7048
aVsinc
p7049
aVsincer
p7050
aVsindh
p7051
aVsing
p7052
aVsingapor
p7053
aVsingaporean
p7054
aVsinger
p7055
aVsingl
p7056
aVsinist
p7057
aVsink
p7058
aVsinn
p7059
aVsinnamari
p7060
aVsiobhan-mari
p7061
aVsir
p7062
aVsire
p7063
aVsiren
p7064
aVsister
p7065
aVsit
p7066
aVsite
p7067
aVsituat
p7068
aVsix
p7069
aVsix-cylind
p7070
aVsix-figur
p7071
aVsix-month
p7072
aVsix-tim
p7073
aVsix-year
p7074
aVsixth
p7075
aVsixty-seven
p7076
aVsize
p7077
aVsizeabl
p7078
aVsketch
p7079
aVskewer
p7080
aVski
p7081
aVskill
p7082
aVskin
p7083
aVskipper
p7084
aVskirmish
p7085
aVskirt
p7086
aS'sky'
p7087
aVskyfal
p7088
aVskys
p7089
aVskyscrap
p7090
aVslash
p7091
aVslater
p7092
aVsleep
p7093
aVsleep-induc
p7094
aVsleeper
p7095
aVsleepov
p7096
aVsleepwalk
p7097
aVslicker
p7098
aVslid
p7099
aVslide
p7100
aVslideshow
p7101
aVslight
p7102
aVslim
p7103
aVslimmer
p7104
aVslip
p7105
aVslipstream
p7106
aVsliver
p7107
aVslogan
p7108
aVslope
p7109
aVslopestyl
p7110
aVslot
p7111
aVslovakia
p7112
aVslow
p7113
aVslow-mov
p7114
aVslowdown
p7115
aVslower
p7116
aVslowest
p7117
aVslowli
p7118
aVslump
p7119
aVsmall
p7120
aVsmall-scal
p7121
aVsmaller
p7122
aVsmart
p7123
aVsmartphon
p7124
aVsmartwatch
p7125
aVsmash
p7126
aVsmell
p7127
aVsmes
p7128
aVsmile
p7129
aVsmith
p7130
aVsmithfield
p7131
aVsmooth
p7132
aVsnack
p7133
aVsnake
p7134
aVsnakehead
p7135
aVsnap
p7136
aVsnap-shot
p7137
aVsnappi
p7138
aVsnapshot
p7139
aVsnare
p7140
aVsnatch
p7141
aVsnead
p7142
aVsneak
p7143
aVsneyd
p7144
aVsnooker
p7145
aVsnow
p7146
aVsnow-cov
p7147
aVsnp
p7148
aVso-cal
p7149
aVso-so
p7150
aVsoak
p7151
aVsoap
p7152
aVsoar
p7153
aVsociabl
p7154
aVsocial
p7155
aVsocieti
p7156
aVsociolog
p7157
aVsock
p7158
aVsocket
p7159
aVsoft
p7160
aVsoftwar
p7161
aVsoil
p7162
aVsolar
p7163
aVsolar-driven
p7164
aVsolar-pow
p7165
aVsold
p7166
aVsoldier
p7167
aVsolicitor
p7168
aVsolid
p7169
aVsolidar
p7170
aVsoliola
p7171
aVsolo
p7172
aVsolomon
p7173
aVsolut
p7174
aVsolv
p7175
aVsomalia
p7176
aVsomebodi
p7177
aVsomehow
p7178
aVsomeon
p7179
aVsomerfield
p7180
aVsomerset
p7181
aVsometh
p7182
aVsomething-has-to-be-don
p7183
aVsometim
p7184
aVsomewhat
p7185
aVsomewher
p7186
aVsomo
p7187
aVson
p7188
aVsonar
p7189
aVsong
p7190
aVsongwrit
p7191
aVsoon
p7192
aVsooner
p7193
aVsophi
p7194
aVsophist
p7195
aVsoprano
p7196
aVsore
p7197
aVsoro
p7198
aVsorri
p7199
aVsort
p7200
aVsought
p7201
aVsoul
p7202
aVsound
p7203
aVsoundbit
p7204
aVsounder
p7205
aVsoup
p7206
aVsour
p7207
aVsourc
p7208
aVsouth
p7209
aVsouth-east
p7210
aVsouth-eastern
p7211
aVsouth-west
p7212
aVsouthal
p7213
aVsouthampton
p7214
aVsoutheast
p7215
aVsouthern
p7216
aVsouthern-bas
p7217
aVsouthwest
p7218
aVsovereignti
p7219
aVsow
p7220
aVsoyuz
p7221
aVspace
p7222
aVspace-born
p7223
aVspace-debri
p7224
aVspacecraft
p7225
aVspain
p7226
aVspanish
p7227
aVspare
p7228
aVspark
p7229
aVsparsely-popul
p7230
aVspat
p7231
aVspate
p7232
aVspeak
p7233
aVspeaker
p7234
aVspear
p7235
aVspearhead
p7236
aVspec
p7237
aVspeci
p7238
aVspecial
p7239
aVspecialis
p7240
aVspecialist
p7241
aVspecially-adapt
p7242
aVspecies-rich
p7243
aVspecif
p7244
aVspecimen
p7245
aVspectacl
p7246
aVspectacular
p7247
aVspectat
p7248
aVspectrum
p7249
aVspecul
p7250
aVspeech
p7251
aVspeechwrit
p7252
aVspeed
p7253
aVspeed-walk
p7254
aVspeedi
p7255
aVspell
p7256
aVspend
p7257
aVspent
p7258
aVsperoni
p7259
aVspew
p7260
aVsphere
p7261
aVspi
p7262
aVspici
p7263
aVspider
p7264
aVspider-man
p7265
aVspieth
p7266
aVspike
p7267
aVspill
p7268
aVspin
p7269
aVspin-off
p7270
aVspinner
p7271
aVspiral
p7272
aVspire
p7273
aVspirit
p7274
aVspiritu
p7275
aVspittl
p7276
aVsplash
p7277
aVsplendour
p7278
aVsplit
p7279
aVsplit-second
p7280
aVspoke
p7281
aVspoken
p7282
aVspokesman
p7283
aVspokesperson
p7284
aVspokeswoman
p7285
aVsponsor
p7286
aVspontan
p7287
aVspook
p7288
aVspoonbil
p7289
aVsporad
p7290
aVsport
p7291
aVsportswrit
p7292
aVspot
p7293
aVspotlight
p7294
aVsprat
p7295
aVspread
p7296
aVspring
p7297
aVspringboard
p7298
aVspringi
p7299
aVspringwatch
p7300
aVsprinkl
p7301
aVsprinkler
p7302
aVsprint
p7303
aVsprinter
p7304
aVsprout
p7305
aVsprung
p7306
aVspud
p7307
aVspur
p7308
aVspurn
p7309
aVsq
p7310
aVsquad
p7311
aVsquar
p7312
aVsquash
p7313
aVsqueez
p7314
aVss
p7315
aVssl
p7316
aVst
p7317
aVstabil
p7318
aVstabilis
p7319
aVstabl
p7320
aVstacey
p7321
aVstadia
p7322
aVstadium
p7323
aVstaf
p7324
aVstaff
p7325
aVstag
p7326
aVstage
p7327
aVstagger
p7328
aVstagnat
p7329
aVstainless
p7330
aVstaircas
p7331
aVstake
p7332
aVstakehold
p7333
aVstalin
p7334
aVstalk
p7335
aVstall
p7336
aVstallon
p7337
aVstamford
p7338
aVstamp
p7339
aVstan
p7340
aVstanc
p7341
aVstand
p7342
aVstand-alon
p7343
aVstandard
p7344
aVstanford
p7345
aVstanisla
p7346
aVstanleywho
p7347
aVstapl
p7348
aVstar
p7349
aVstar-struck
p7350
aVstargaz
p7351
aVstark
p7352
aVstart
p7353
aVstart-up
p7354
aVstarter
p7355
aVstartl
p7356
aVstartup
p7357
aVstat
p7358
aVstate
p7359
aVstate-control
p7360
aVstate-fund
p7361
aVstate-of-the-art
p7362
aVstate-own
p7363
aVstate-sponsor
p7364
aVstatehood
p7365
aVstatement
p7366
aVstation
p7367
aVstationari
p7368
aVstatist
p7369
aVstatus
p7370
aVstatut
p7371
aVstatutori
p7372
aVstaunch
p7373
aVstavang
p7374
aVstay
p7375
aVstayt
p7376
aVsteadili
p7377
aVsteadman
p7378
aVsteadycam
p7379
aVsteak
p7380
aVsteal
p7381
aVsteam
p7382
aVsteamrol
p7383
aVsteel
p7384
aVsteep
p7385
aVsteeplechas
p7386
aVsteepli
p7387
aVsteer
p7388
aVsteinberg
p7389
aVstella
p7390
aVstellar
p7391
aVstem
p7392
aVstenhousemuir
p7393
aVstep
p7394
aVstep-rel
p7395
aVstepfath
p7396
aVstephani
p7397
aVstephen
p7398
aVstepmoth
p7399
aVstepto
p7400
aVsterl
p7401
aVsteroid
p7402
aVsteve
p7403
aVsteven
p7404
aVsteward
p7405
aVstewardship
p7406
aVstick
p7407
aVstiffen
p7408
aVstigma
p7409
aVstigmatis
p7410
aVstill
p7411
aVstimul
p7412
aVstimuli
p7413
aVstimulus
p7414
aVsting
p7415
aVstingray
p7416
aVstir
p7417
aVstirl
p7418
aVstirlingshir
p7419
aVstitch
p7420
aVstock
p7421
aVstockholm
p7422
aVstockpil
p7423
aVstoke
p7424
aVstole
p7425
aVstolen
p7426
aVstomach
p7427
aVstone
p7428
aVstood
p7429
aVstop
p7430
aVstoppag
p7431
aVstopsley
p7432
aVstorag
p7433
aVstore
p7434
aVstoredot
p7435
aVstorey
p7436
aVstori
p7437
aVstorm
p7438
aVstraight
p7439
aVstrain
p7440
aVstrand
p7441
aVstrang
p7442
aVstranger
p7443
aVstrangl
p7444
aVstrateg
p7445
aVstrategi
p7446
aVstratford
p7447
aVstratford-upon-avon
p7448
aVstrathclyd
p7449
aVstrathspey
p7450
aVstravino
p7451
aVstray
p7452
aVstreak
p7453
aVstream
p7454
aVstreamlin
p7455
aVstreet
p7456
aVstrength
p7457
aVstrengthen
p7458
aVstrenuous
p7459
aVstress
p7460
aVstressor
p7461
aVstretch
p7462
aVstricken
p7463
aVstrict
p7464
aVstrict-liabl
p7465
aVstricter
p7466
aVstride
p7467
aVstrike
p7468
aVstriker
p7469
aVstring
p7470
aVstringent
p7471
aVstringer
p7472
aVstrip
p7473
aVstrive
p7474
aVstroke
p7475
aVstroll
p7476
aVstrong
p7477
aVstronger
p7478
aVstrongest
p7479
aVstruck
p7480
aVstructur
p7481
aVstruggl
p7482
aVstrung
p7483
aVstuart
p7484
aVstub
p7485
aVstuck
p7486
aVstudent
p7487
aVstudi
p7488
aVstudio
p7489
aVstuf
p7490
aVstuff
p7491
aVstumbl
p7492
aVstump
p7493
aVstun
p7494
aVstung
p7495
aVstunt
p7496
aVsturdi
p7497
aVsturridg
p7498
aVstyle
p7499
aVsuarez
p7500
aVsub
p7501
aVsub-on
p7502
aVsub-saharan
p7503
aVsub-titl
p7504
aVsubject
p7505
aVsubjug
p7506
aVsubmarin
p7507
aVsubmers
p7508
aVsubmiss
p7509
aVsubmit
p7510
aVsubscrib
p7511
aVsubsequ
p7512
aVsubsid
p7513
aVsubsidi
p7514
aVsubsidiari
p7515
aVsubsidis
p7516
aVsubstanc
p7517
aVsubstanti
p7518
aVsubstitut
p7519
aVsubterranean
p7520
aVsubtl
p7521
aVsubtleti
p7522
aVsuburb
p7523
aVsucceed
p7524
aVsuccess
p7525
aVsuccessor
p7526
aVsuccinct
p7527
aVsuccumb
p7528
aVsuck
p7529
aVsudden
p7530
aVsudeiki
p7531
aVsue
p7532
aVsued
p7533
aVsuffer
p7534
aVsuffici
p7535
aVsuffragett
p7536
aVsugar
p7537
aVsugarsaltartifici
p7538
aVsuggest
p7539
aVsui
p7540
aVsuicid
p7541
aVsuit
p7542
aVsuit-and-ti
p7543
aVsuitabl
p7544
aVsullivan
p7545
aVsum
p7546
aVsummari
p7547
aVsummer
p7548
aVsummerhay
p7549
aVsummit
p7550
aVsumptuous
p7551
aVsun
p7552
aVsunday
p7553
aVsunderland
p7554
aVsunlight
p7555
aVsunni
p7556
aVsunshin
p7557
aVsuper
p7558
aVsuper-connect
p7559
aVsuper-flatt
p7560
aVsuper-hero
p7561
aVsuper-middleweight
p7562
aVsupergrass
p7563
aVsuperhero
p7564
aVsuperintend
p7565
aVsuperior
p7566
aVsupermarch
p7567
aVsupermarket
p7568
aVsuperstar
p7569
aVsupper
p7570
aVsuppli
p7571
aVsupplier
p7572
aVsupport
p7573
aVsuppos
p7574
aVsuppress
p7575
aVsuprem
p7576
aVsure
p7577
aVsure-fir
p7578
aVsurf
p7579
aVsurfac
p7580
aVsurfer
p7581
aVsurg
p7582
aVsurgeon
p7583
aVsurgic
p7584
aVsurin
p7585
aVsurplus
p7586
aVsurpris
p7587
aVsurrey
p7588
aVsurround
p7589
aVsurvat
p7590
aVsurvey
p7591
aVsurveyor
p7592
aVsurviv
p7593
aVsurvivor
p7594
aVsusanna
p7595
aVsuscept
p7596
aVsuspect
p7597
aVsuspend
p7598
aVsuspens
p7599
aVsuspici
p7600
aVsuspicion
p7601
aVsustain
p7602
aVsutherland
p7603
aVsutton
p7604
aVsuu
p7605
aVswa
p7606
aVswag
p7607
aVswamp
p7608
aVswampi
p7609
aVswansea
p7610
aVswap
p7611
aVswas
p7612
aVswat
p7613
aVswath
p7614
aVswath-map
p7615
aVsweat
p7616
aVsweatshirt
p7617
aVsweden
p7618
aVswedish
p7619
aVsweep
p7620
aVsweet
p7621
aVswell
p7622
aVswift
p7623
aVswim
p7624
aVswimmer
p7625
aVswing
p7626
aVswipe
p7627
aVswirl
p7628
aVswiss
p7629
aVswitch
p7630
aVswitzerland
p7631
aVswitzerland-bas
p7632
aVswivel
p7633
aVswollen
p7634
aVswum
p7635
aVsydney
p7636
aVsylva
p7637
aVsylvest
p7638
aVsymbol
p7639
aVsymbolis
p7640
aVsympathet
p7641
aVsymphoni
p7642
aVsymptom
p7643
aVsymptomat
p7644
aVsynchronis
p7645
aVsyndicateroom
p7646
aVsyndrom
p7647
aVsynod
p7648
aVsyria
p7649
aVsyring
p7650
aVsyrup
p7651
aVsystem
p7652
aVsystemat
p7653
aVt-shirt
p7654
aVtabl
p7655
aVtablet
p7656
aVtackl
p7657
aVtactic
p7658
aVtaewoo
p7659
aVtag
p7660
aVtaglin
p7661
aVtahir
p7662
aVtail
p7663
aVtail-end
p7664
aVtailor-mad
p7665
aVtaipei
p7666
aVtaiwan
p7667
aVtaiwanes
p7668
aVtakaaki
p7669
aVtake
p7670
aVtake-away
p7671
aVtake-out
p7672
aVtake-up
p7673
aVtakeaway
p7674
aVtaken
p7675
aVtakeov
p7676
aVtale
p7677
aVtalent
p7678
aVtalent-rais
p7679
aVtalk
p7680
aVtalktalk
p7681
aVtall
p7682
aVtalli
p7683
aVtan
p7684
aVtancock
p7685
aVtandem
p7686
aVtang
p7687
aVtangl
p7688
aVtank
p7689
aVtanni
p7690
aVtantalis
p7691
aVtanuku
p7692
aVtanya
p7693
aVtanzania
p7694
aVtap
p7695
aVtar
p7696
aVtarb
p7697
aVtarget
p7698
aVtariff
p7699
aVtasha
p7700
aVtask
p7701
aVtast
p7702
aVtate
p7703
aVtatton
p7704
aVtaught
p7705
aVtax
p7706
aVtax-fre
p7707
aVtax-rais
p7708
aVtaxabl
p7709
aVtaxat
p7710
aVtaxman
p7711
aVtaxonom
p7712
aVtaxpay
p7713
aVtaylor
p7714
aVtb
p7715
aVtea
p7716
aVteach
p7717
aVteacher
p7718
aVteacher-l
p7719
aVteacher-pupil
p7720
aVteacher-stud
p7721
aVteacher-train
p7722
aVteam
p7723
aVteam-mat
p7724
aVteam-memb
p7725
aVteam-work
p7726
aVtear
p7727
aVtebbit
p7728
aVtech
p7729
aVtech-touch
p7730
aVtechnic
p7731
aVtechnician
p7732
aVtechniqu
p7733
aVtechnolog
p7734
aVtee
p7735
aVteen
p7736
aVteenag
p7737
aVteeth
p7738
aVtel
p7739
aVtelecommun
p7740
aVtelephon
p7741
aVtelescop
p7742
aVtelevis
p7743
aVtell
p7744
aVtelok
p7745
aVtempera
p7746
aVtemperatur
p7747
aVtemperature-rel
p7748
aVtempl
p7749
aVtempo
p7750
aVtemporari
p7751
aVtempt
p7752
aVtemptat
p7753
aVten
p7754
aVten-year
p7755
aVtenaci
p7756
aVtend
p7757
aVtendenc
p7758
aVtengchong
p7759
aVtension
p7760
aVtent
p7761
aVtenur
p7762
aVterabyt
p7763
aVtergat
p7764
aVterm
p7765
aVtermin
p7766
aVterminolog
p7767
aVterr
p7768
aVterrac
p7769
aVterrain
p7770
aVterribl
p7771
aVterrifi
p7772
aVterritori
p7773
aVterror
p7774
aVterroris
p7775
aVterrorist
p7776
aVtest
p7777
aVtest-cas
p7778
aVtestament
p7779
aVtesticl
p7780
aVtether
p7781
aVtexa
p7782
aVtexass
p7783
aVtext
p7784
aVtextbook
p7785
aVtextur
p7786
aVth
p7787
aVth-hole
p7788
aVth-round
p7789
aVthai
p7790
aVthailand
p7791
aVthale
p7792
aVthaler
p7793
aVthame
p7794
aVthane
p7795
aVthank
p7796
aVthat
p7797
aVthatcher
p7798
aVtheatr
p7799
aVtheatric
p7800
aVtheme
p7801
aVthen-known
p7802
aVtheoret
p7803
aVtheori
p7804
aVtherapi
p7805
aVtherapist
p7806
aVthere
p7807
aVtherefor
p7808
aVtheresa
p7809
aVthermal
p7810
aVthermostat-mak
p7811
aVthesi
p7812
aVtheyd
p7813
aVtheyll
p7814
aVtheyr
p7815
aVtheyv
p7816
aVthi
p7817
aVthick
p7818
aVthicken
p7819
aVthief
p7820
aVthin
p7821
aVthing
p7822
aVthink
p7823
aVthink-tank
p7824
aVthird
p7825
aVthird-from-bottom
p7826
aVthird-largest
p7827
aVthird-parti
p7828
aVthird-plac
p7829
aVthirst
p7830
aVthirty-first
p7831
aVthistl
p7832
aVthoma
p7833
aVthompson
p7834
aVthomson
p7835
aVthorndyk
p7836
aVthornhil
p7837
aVthorni
p7838
aVthorough
p7839
aVthough
p7840
aVthought
p7841
aVthought-provok
p7842
aVthousand
p7843
aVthrash
p7844
aVthreat
p7845
aVthreaten
p7846
aVthree
p7847
aVthree-
p7848
aVthree-and-a-half
p7849
aVthree-day
p7850
aVthree-metr
p7851
aVthree-mil
p7852
aVthree-put
p7853
aVthree-quart
p7854
aVthree-shot
p7855
aVthree-stag
p7856
aVthree-tier
p7857
aVthree-tim
p7858
aVthree-year
p7859
aVthreshold
p7860
aVthrew
p7861
aVthrill
p7862
aVthrive
p7863
aVthroat
p7864
aVthrone
p7865
aVthrottl
p7866
aVthroughout
p7867
aVthrow
p7868
aVthrown
p7869
aVthruster
p7870
aVthumb
p7871
aVthump
p7872
aVthursday
p7873
aVthus
p7874
aVthwait
p7875
aVtic
p7876
aVtick
p7877
aVticket
p7878
aVtidal
p7879
aVtide
p7880
aVtidi
p7881
aVtidili
p7882
aVtie
p7883
aVtiger
p7884
aVtight
p7885
aVtighten
p7886
aVtiki
p7887
aVtile
p7888
aVtilt
p7889
aVtim
p7890
aVtimber
p7891
aVtime
p7892
aVtime-tri
p7893
aVtimet
p7894
aVtimid
p7895
aVtimothi
p7896
aVtin
p7897
aVtindal
p7898
aVtini
p7899
aVtinker
p7900
aVtip
p7901
aVtire
p7902
aVtirunesh
p7903
aVtissu
p7904
aVtitan
p7905
aVtitl
p7906
aVtmau
p7907
aVtns-bmrb
p7908
aVtns-brmb
p7909
aVto-do
p7910
aVtoast
p7911
aVtoday
p7912
aVtodd
p7913
aVtoddler
p7914
aVtoe
p7915
aVtogeth
p7916
aVtoilet
p7917
aVtokushi
p7918
aVtokyo
p7919
aVtold
p7920
aVtoler
p7921
aVtoll
p7922
aVtollcross
p7923
aVtom
p7924
aVtomato
p7925
aVtombola
p7926
aVtomkin
p7927
aVtomlin
p7928
aVtomlinson
p7929
aVtommi
p7930
aVtomorrow
p7931
aVtone
p7932
aVtoni
p7933
aVtonight
p7934
aVtonn
p7935
aVtook
p7936
aVtool
p7937
aVtooth-bil
p7938
aVtop
p7939
aVtop-flight
p7940
aVtop-level
p7941
aVtop-seven
p7942
aVtopic
p7943
aVtopographi
p7944
aVtore
p7945
aVtori
p7946
aVtorn
p7947
aVtorpedo-shap
p7948
aVtorrent
p7949
aVtorrid
p7950
aVtoss
p7951
aVtotal
p7952
aVtottenham
p7953
aVtou
p7954
aVtouch
p7955
aVtouchdown
p7956
aVtouchlin
p7957
aVtough
p7958
aVtoughen
p7959
aVtougher
p7960
aVtoughest
p7961
aVtour
p7962
aVtourist
p7963
aVtournament
p7964
aVtow
p7965
aVtoward
p7966
aVtower
p7967
aVtown
p7968
aVtownsend
p7969
aVtoxic
p7970
aVtoxicolog
p7971
aVtoy
p7972
aVtoyota
p7973
aVtrace
p7974
aVtrack
p7975
aVtracksuit
p7976
aVtrade
p7977
aVtrademark
p7978
aVtradit
p7979
aVtraffic
p7980
aVtragedi
p7981
aVtragic
p7982
aVtrail
p7983
aVtrain
p7984
aVtrainer
p7985
aVtrajectori
p7986
aVtransact
p7987
aVtransfer
p7988
aVtransfix
p7989
aVtransform
p7990
aVtransit
p7991
aVtranslat
p7992
aVtransmit
p7993
aVtranspar
p7994
aVtransplant
p7995
aVtransport
p7996
aVtrap
p7997
aVtrauma
p7998
aVtraumat
p7999
aVtravel
p8000
aVtraver
p8001
aVtreacher
p8002
aVtreadwell-collin
p8003
aVtreasur
p8004
aVtreasuri
p8005
aVtreat
p8006
aVtreati
p8007
aVtreatment
p8008
aVtrebl
p8009
aVtree
p8010
aVtree-plant
p8011
aVtrek
p8012
aVtremend
p8013
aVtrend
p8014
aVtrent
p8015
aVtrepid
p8016
aVtri
p8017
aVtrial
p8018
aVtriall
p8019
aVtriathlet
p8020
aVtriathlon
p8021
aVtribal
p8022
aVtribun
p8023
aVtribut
p8024
aVtricia
p8025
aVtrick
p8026
aVtricki
p8027
aVtricycl
p8028
aVtrigger
p8029
aVtrimethylaminuria
p8030
aVtrip
p8031
aVtripl
p8032
aVtriple-bogey
p8033
aVtrippier
p8034
aVtristram
p8035
aVtriumph
p8036
aVtrivial
p8037
aVtrixibell
p8038
aVtrojan
p8039
aVtrolley
p8040
aVtroop
p8041
aVtrophi
p8042
aVtropic
p8043
aVtropical-weight
p8044
aVtrott
p8045
aVtroubl
p8046
aVtrough
p8047
aVtroy
p8048
aVtruck
p8049
aVtrue
p8050
aVtruli
p8051
aVtruss
p8052
aVtrust
p8053
aVtrustan
p8054
aVtruth
p8055
aVtsegay
p8056
aVtube-lik
p8057
aVtuc
p8058
aVtucker
p8059
aVtuesday
p8060
aVtuition
p8061
aVtumblr
p8062
aVtumour
p8063
aVtune
p8064
aVtunnel
p8065
aVturbin
p8066
aVturf
p8067
aVturkey
p8068
aVturkmenistan
p8069
aVturmoil
p8070
aVturn
p8071
aVturnaround
p8072
aVturner
p8073
aVturnout
p8074
aVturnov
p8075
aVtutor
p8076
aVtutori
p8077
aVtv
p8078
aVtvs
p8079
aVtweet
p8080
aVtwelv
p8081
aVtwenti
p8082
aVtwenty-eight
p8083
aVtwice
p8084
aVtwickenham
p8085
aVtwist
p8086
aVtwitter
p8087
aVtwo
p8088
aVtwo-and-a-half
p8089
aVtwo-hour
p8090
aVtwo-pag
p8091
aVtwo-par
p8092
aVtwo-third
p8093
aVtwo-tim
p8094
aVtwo-way
p8095
aVtwos
p8096
aVtycoon
p8097
aVtype
p8098
aVtyphoid
p8099
aVtyphoon
p8100
aVtypic
p8101
aVtyre
p8102
aVu
p8103
aVu-turn
p8104
aVubiquit
p8105
aVucla
p8106
aVuefa
p8107
aVuganda
p8108
aVugandan
p8109
aVuk
p8110
aVuk-bas
p8111
aVukrain
p8112
aVukrainian
p8113
aVulla
p8114
aVultim
p8115
aVultra-effici
p8116
aVultra-fast
p8117
aVultra-high
p8118
aVultra-purifi
p8119
aVultrason
p8120
aVun
p8121
aVun-back
p8122
aVunabl
p8123
aVunaccept
p8124
aVunafford
p8125
aVunanim
p8126
aVunannounc
p8127
aVunavoid
p8128
aVunawar
p8129
aVunbeaten
p8130
aVunbeliev
p8131
aVunbossi
p8132
aVunbound
p8133
aVunbroken
p8134
aVunbuild
p8135
aVuncensor
p8136
aVuncertain
p8137
aVuncertainti
p8138
aVunchain
p8139
aVunchang
p8140
aVuncl
p8141
aVunclutt
p8142
aVuncollect
p8143
aVuncomfort
p8144
aVuncompromis
p8145
aVunconsci
p8146
aVuncool
p8147
aVuncoupl
p8148
aVuncov
p8149
aVundaunt
p8150
aVundeclar
p8151
aVundef
p8152
aVunder
p8153
aVunder-
p8154
aVunder-aspir
p8155
aVunder-fund
p8156
aVundercard
p8157
aVundercov
p8158
aVunderdiagnos
p8159
aVunderdog
p8160
aVunderestim
p8161
aVundergradu
p8162
aVunderground
p8163
aVunderlin
p8164
aVundermin
p8165
aVunderp
p8166
aVunderperform
p8167
aVunderpin
p8168
aVunderresearch
p8169
aVundersea
p8170
aVunderstand
p8171
aVunderstood
p8172
aVundertak
p8173
aVundertaken
p8174
aVundertr
p8175
aVunderw
p8176
aVunderwat
p8177
aVunderway
p8178
aVunderwhelm
p8179
aVundeserv
p8180
aVundetect
p8181
aVundisclos
p8182
aVundoubt
p8183
aVuneas
p8184
aVuneasi
p8185
aVunelect
p8186
aVunemploy
p8187
aVunend
p8188
aVunequ
p8189
aVunesco
p8190
aVunexpect
p8191
aVunfamiliar
p8192
aVunfavour
p8193
aVunfinish
p8194
aVunflapp
p8195
aVunfold
p8196
aVunforgett
p8197
aVunfortun
p8198
aVunhappi
p8199
aVunherald
p8200
aVunhing
p8201
aVuniform
p8202
aVuninhabit
p8203
aVuninterrupt
p8204
aVunion
p8205
aVuniqu
p8206
aVunison
p8207
aVunit
p8208
aVunivers
p8209
aVunjust
p8210
aVunknown
p8211
aVunleash
p8212
aVunless
p8213
aVunlik
p8214
aVunlimit
p8215
aVunload
p8216
aVunlucki
p8217
aVunman
p8218
aVunmark
p8219
aVunmarri
p8220
aVunmiss
p8221
aVunmistak
p8222
aVunnam
p8223
aVunnecessari
p8224
aVunnerv
p8225
aVunnot
p8226
aVunoccupi
p8227
aVunpack
p8228
aVunpaid
p8229
aVunparallel
p8230
aVunpatch
p8231
aVunpick
p8232
aVunpleas
p8233
aVunpopular
p8234
aVunpreced
p8235
aVunprepar
p8236
aVunprocess
p8237
aVunproven
p8238
aVunrealist
p8239
aVunrel
p8240
aVunreli
p8241
aVunremark
p8242
aVunrival
p8243
aVunscientif
p8244
aVunseen
p8245
aVunsettl
p8246
aVunshak
p8247
aVunskil
p8248
aVunsold
p8249
aVunstopp
p8250
aVunstructur
p8251
aVunsuit
p8252
aVunsung
p8253
aVunsupport
p8254
aVunsurpass
p8255
aVunsurpris
p8256
aVuntap
p8257
aVuntax
p8258
aVuntouch
p8259
aVuntri
p8260
aVuntroubl
p8261
aVuntru
p8262
aVunturn
p8263
aVunus
p8264
aVunusu
p8265
aVunveil
p8266
aVunviabl
p8267
aVunwant
p8268
aVunwarr
p8269
aVunwel
p8270
aVunwelcom
p8271
aVunwit
p8272
aVup-and-com
p8273
aVup-to-d
p8274
aVupbeat
p8275
aVupbring
p8276
aVupcom
p8277
aVupdat
p8278
aVupfront
p8279
aVupgrad
p8280
aVuphold
p8281
aVuplift
p8282
aVupload
p8283
aVupon
p8284
aVupper
p8285
aVuppsala
p8286
aVupset
p8287
aVupsid
p8288
aVupsurg
p8289
aVupturn
p8290
aVupward
p8291
aVurban
p8292
aVurbanis
p8293
aVurg
p8294
aVurgenc
p8295
aVurgent
p8296
aVurin
p8297
aVurl
p8298
aVus
p8299
aVus-bas
p8300
aVusa
p8301
aVusain
p8302
aVuse
p8303
aVuseabl
p8304
aVuseless
p8305
aVuser
p8306
aVuser-fac
p8307
aVusernam
p8308
aVusher
p8309
aVuspga
p8310
aVuss
p8311
aVusual
p8312
aVutd
p8313
aVuterus
p8314
aVutil
p8315
aVutilis
p8316
aVutter
p8317
aVuwe
p8318
aVuwimana
p8319
aVv
p8320
aVvacanc
p8321
aVvaccin
p8322
aVvagin
p8323
aVvagina
p8324
aVvaginal-lin
p8325
aVvaizey
p8326
aVvale
p8327
aVvalentino
p8328
aVvalid
p8329
aVvalley
p8330
aVvalley-bas
p8331
aVvalmalenco
p8332
aVvalu
p8333
aVvaluabl
p8334
aVvalv
p8335
aVvan
p8336
aVvancouv
p8337
aVvaniti
p8338
aVvanmarck
p8339
aVvapour
p8340
aVvarga
p8341
aVvari
p8342
aVvariat
p8343
aVvarieti
p8344
aVvarious
p8345
aVvase
p8346
aVvashem
p8347
aVvast
p8348
aVvattenfal
p8349
aVvaudevill
p8350
aVvault
p8351
aVvector
p8352
aVvega
p8353
aVveget
p8354
aVvehicl
p8355
aVvell
p8356
aVvelodrom
p8357
aVvelvet
p8358
aVvend
p8359
aVvenizelo
p8360
aVvent
p8361
aVventil
p8362
aVventur
p8363
aVvenu
p8364
aVveranda
p8365
aVverbal
p8366
aVverbos
p8367
aVverdict
p8368
aVvereniki
p8369
aVverg
p8370
aVverifi
p8371
aVversatil
p8372
aVversion
p8373
aVvertic
p8374
aVverv
p8375
aVvessel
p8376
aVvet
p8377
aVveteran
p8378
aVveterinari
p8379
aVvhs
p8380
aVvia
p8381
aVviabl
p8382
aVvibrant
p8383
aVvic
p8384
aVvice
p8385
aVvice-chairman
p8386
aVvice-presid
p8387
aVvice-princip
p8388
aVvicent
p8389
aVvicki
p8390
aVvictim
p8391
aVvictimis
p8392
aVvictor
p8393
aVvictori
p8394
aVvictoria
p8395
aVvideo
p8396
aVvideograph
p8397
aVvietnam
p8398
aVview
p8399
aVviewer
p8400
aVvigor
p8401
aVvihear
p8402
aVviktor
p8403
aVvilifi
p8404
aVvilla
p8405
aVvillag
p8406
aVvillier
p8407
aVvimeo
p8408
aVvinc
p8409
aVvincent
p8410
aVvineyard
p8411
aVviolenc
p8412
aVviolent
p8413
aVviolet
p8414
aVvirgin
p8415
aVvirologist
p8416
aVvirtu
p8417
aVvirtual
p8418
aVvirus
p8419
aVvirus-induc
p8420
aVvisa
p8421
aVvisibl
p8422
aVvision
p8423
aVvisit
p8424
aVvisitor
p8425
aVvisual
p8426
aVvisualis
p8427
aVvital
p8428
aVvivero
p8429
aVvivien
p8430
aVvlaar
p8431
aVvladimir
p8432
aVvocabulari
p8433
aVvocal
p8434
aVvoic
p8435
aVvolcan
p8436
aVvolk
p8437
aVvolkswagen
p8438
aVvolley
p8439
aVvolum
p8440
aVvolunt
p8441
aVvoluntari
p8442
aVvomit
p8443
aVvote
p8444
aVvoter
p8445
aVvoyag
p8446
aVvulner
p8447
aVvulva
p8448
aVw
p8449
aVwa
p8450
aVwaft
p8451
aVwag
p8452
aVwage
p8453
aVwail
p8454
aVwait
p8455
aVwaiter
p8456
aVwake
p8457
aVwaldman
p8458
aVwale
p8459
aVwaless
p8460
aVwalk
p8461
aVwalker
p8462
aVwalker-hebborn
p8463
aVwall
p8464
aVwallabi
p8465
aVwallac
p8466
aVwalliam
p8467
aVwalmsley
p8468
aVwalsh
p8469
aVwalter
p8470
aVwalusimbi
p8471
aVwanamak
p8472
aVwanjiru
p8473
aVwant
p8474
aVwar
p8475
aVwar-torn
p8476
aVward
p8477
aVwarehous
p8478
aVwari
p8479
aVwark
p8480
aVwarlord
p8481
aVwarm
p8482
aVwarn
p8483
aVwarplan
p8484
aVwarren
p8485
aVwarrington
p8486
aVwartim
p8487
aVwarwick
p8488
aVwash
p8489
aVwashington
p8490
aVwasnt
p8491
aVwast
p8492
aVwatch
p8493
aVwatch-point
p8494
aVwatchdog
p8495
aVwater
p8496
aVwater-recycl
p8497
aVwater-resist
p8498
aVwaterlin
p8499
aVwaterman
p8500
aVwatkin
p8501
aVwatson
p8502
aVwave
p8503
aVwaverley
p8504
aVway
p8505
aVwayward
p8506
aVwba
p8507
aVwbo
p8508
aVweak
p8509
aVweaker
p8510
aVweakest
p8511
aVwealth
p8512
aVwealthi
p8513
aVweapon
p8514
aVwear
p8515
aVwearabl
p8516
aVweari
p8517
aVweather
p8518
aVweav
p8519
aVweb
p8520
aVwebb
p8521
aVwebmail
p8522
aVwebsit
p8523
aVwebster
p8524
aVwed
p8525
aVwedg
p8526
aVwedlock
p8527
aVwednesday
p8528
aVweek
p8529
aVweek-long
p8530
aVweekend
p8531
aVweigh
p8532
aVweight
p8533
aVweimann
p8534
aVweir
p8535
aVweird
p8536
aVweiskopf
p8537
aVwelcom
p8538
aVwelfar
p8539
aVwelfare-abus
p8540
aVwelfare-specif
p8541
aVwell
p8542
aVwell-b
p8543
aVwell-capitalis
p8544
aVwell-intent
p8545
aVwell-known
p8546
aVwell-mad
p8547
aVwell-round
p8548
aVwell-settl
p8549
aVwellcom
p8550
aVwellen
p8551
aVweller
p8552
aVwello
p8553
aVwelsh
p8554
aVwelshman
p8555
aVwelszow-south
p8556
aVwelterweight
p8557
aVwelwyn
p8558
aVwembley
p8559
aVwener
p8560
aVwent
p8561
aVwerent
p8562
aVwes
p8563
aVwest
p8564
aVwestern
p8565
aVwesterwell
p8566
aVwestminst
p8567
aVwestwood
p8568
aVwet
p8569
aVwetsuit
p8570
aVwettest
p8571
aVweve
p8572
aVweybridg
p8573
aVweymss
p8574
aVwh
p8575
aVwhale
p8576
aVwharton
p8577
aVwhat
p8578
aVwhatev
p8579
aVwhatsoev
p8580
aVwheel
p8581
aVwheelchair
p8582
aVwheeler
p8583
aVwhelton
p8584
aVwhenev
p8585
aVwherea
p8586
aVwherebi
p8587
aVwherev
p8588
aVwhether
p8589
aVwhiley
p8590
aVwhilst
p8591
aVwhim
p8592
aVwhip
p8593
aVwhirlwind
p8594
aVwhiski
p8595
aVwhisper
p8596
aVwhistl
p8597
aVwhistleblow
p8598
aVwhite
p8599
aVwhite-collar
p8600
aVwhite-flesh
p8601
aVwhitehal
p8602
aVwhitehead
p8603
aVwhitehurst
p8604
aVwhoever
p8605
aVwhole
p8606
aVwholeheart
p8607
aVwholesal
p8608
aVwholli
p8609
aVwhop
p8610
aVwhos
p8611
aVwhose
p8612
aVwhyte
p8613
aVwi-fi
p8614
aVwiddecomb
p8615
aVwide
p8616
aVwide-ey
p8617
aVwide-rang
p8618
aVwide-scal
p8619
aVwiden
p8620
aVwider
p8621
aVwidespread
p8622
aVwidth
p8623
aVwield
p8624
aVwife
p8625
aVwigan
p8626
aVwiggin
p8627
aVwil
p8628
aVwild
p8629
aVwilder
p8630
aVwildest
p8631
aVwildlif
p8632
aVwilkin
p8633
aVwilkinson
p8634
aVwilko
p8635
aVwill
p8636
aVwilli
p8637
aVwilliam
p8638
aVwilliamss
p8639
aVwilling
p8640
aVwilmslow
p8641
aVwilshaw
p8642
aVwilson
p8643
aVwilton
p8644
aVwimp
p8645
aVwin
p8646
aVwin-win
p8647
aVwinc
p8648
aVwinch
p8649
aVwind
p8650
aVwindow
p8651
aVwindpip
p8652
aVwindsor
p8653
aVwine
p8654
aVwing
p8655
aVwinger
p8656
aVwingspan
p8657
aVwinnabl
p8658
aVwinner
p8659
aVwinter
p8660
aVwipe
p8661
aVwire
p8662
aVwirelesss
p8663
aVwisden
p8664
aVwise
p8665
aVwiseman
p8666
aVwish
p8667
aVwit
p8668
aVwithdrawn
p8669
aVwithdrew
p8670
aVwithin
p8671
aVwithington
p8672
aVwithout
p8673
aVwitti
p8674
aVwittiest
p8675
aVwive
p8676
aVwobbl
p8677
aVwoeful
p8678
aVwoefulli
p8679
aVwoken
p8680
aVwolf
p8681
aVwolfgang
p8682
aVwolfson
p8683
aVwolv
p8684
aVwoman
p8685
aVwomb
p8686
aVwomen
p8687
aVwon
p8688
aVwonder
p8689
aVwonderwal
p8690
aVwonka
p8691
aVwont
p8692
aVwood
p8693
aVwooden
p8694
aVwoodford
p8695
aVwoodgat
p8696
aVwoodhous
p8697
aVwoodi
p8698
aVwoodland
p8699
aVwoodroff
p8700
aVwoodward
p8701
aVwoodwork
p8702
aVwoolgar
p8703
aVwoosnam
p8704
aVworcestershir
p8705
aVword
p8706
aVwore
p8707
aVwork
p8708
aVwork-lif
p8709
aVworkahol
p8710
aVworker
p8711
aVworkforc
p8712
aVworking-class
p8713
aVworkless
p8714
aVworklif
p8715
aVworkload
p8716
aVworkplac
p8717
aVworkshop
p8718
aVworld
p8719
aVworld-record
p8720
aVworldwid
p8721
aVworri
p8722
aVwors
p8723
aVworship
p8724
aVworst
p8725
aVworth
p8726
aVworthless
p8727
aVworthwhil
p8728
aVwould
p8729
aVwould-b
p8730
aVwouldnt
p8731
aVwound
p8732
aVwoven
p8733
aVwow
p8734
aVwozniacki
p8735
aVwrap
p8736
aVwrapper
p8737
aVwrath
p8738
aVwreath
p8739
aVwreckag
p8740
aVwrest
p8741
aVwrite
p8742
aVwriter
p8743
aVwritten
p8744
aVwrong
p8745
aVwrong-do
p8746
aVwrote
p8747
aVws
p8748
aVwulli
p8749
aVx
p8750
aVx-forc
p8751
aVxcx
p8752
aVxenon
p8753
aVxi
p8754
aVxie
p8755
aVya
p8756
aVyad
p8757
aVyahoo
p8758
aVyale
p8759
aVyamaha
p8760
aVyamal
p8761
aVyang
p8762
aVyangon
p8763
aVyannick
p8764
aVyanukovych
p8765
aVyard
p8766
aVyate
p8767
aVyatsenyuk
p8768
aVyaya
p8769
aVybas
p8770
aVyeah
p8771
aVyear
p8772
aVyear-old
p8773
aVyear-round
p8774
aVyearn
p8775
aVyellow
p8776
aVyes
p8777
aVyesno
p8778
aVyesterday
p8779
aVyet
p8780
aVyield
p8781
aVyin
p8782
aVyong
p8783
aVyonni
p8784
aVyork
p8785
aVyorker
p8786
aVyorkshir
p8787
aVyoud
p8788
aVyougov
p8789
aVyoull
p8790
aVyoung
p8791
aVyounger
p8792
aVyoungest
p8793
aVyoungster
p8794
aVyour
p8795
aVyouth
p8796
aVyoutub
p8797
aVyouv
p8798
aVyoweri
p8799
aVyulia
p8800
aVyvonn
p8801
aVz
p8802
aVzabaleta
p8803
aVzara
p8804
aVzeal
p8805
aVzealand
p8806
aVzeffirelli
p8807
aVzenith
p8808
aVzeppelin
p8809
aVzheltoukhova
p8810
aVzhushan
p8811
aVzionist
p8812
aVzoe
p8813
aVzone
p8814
aVzoolog
p8815
aVzopa
p8816
aVzsl
p8817
a.